Archive member included because of file (symbol)

/home/ape/libs/mspgcc-4.7.3/bin/../lib/gcc/msp430/4.7.3/mmpy-16/libgcc.a(_mulsi3.o)
                              build/sky/obj/cfs-coffee.o (__mulsi3)
/home/ape/libs/mspgcc-4.7.3/bin/../lib/gcc/msp430/4.7.3/mmpy-16/libgcc.a(_udivmod16.o)
                              build/sky/obj/cfs-coffee.o (__udivhi3)
/home/ape/libs/mspgcc-4.7.3/bin/../lib/gcc/msp430/4.7.3/mmpy-16/libgcc.a(_divmod16.o)
                              build/sky/obj/link-stats.o (__divhi3)
/home/ape/libs/mspgcc-4.7.3/bin/../lib/gcc/msp430/4.7.3/mmpy-16/libgcc.a(_udivmod32.o)
                              build/sky/obj/ifft.o (__udivsi3)
/home/ape/libs/mspgcc-4.7.3/bin/../lib/gcc/msp430/4.7.3/mmpy-16/libgcc.a(_divmod32.o)
                              build/sky/obj/cfs-coffee.o (__divsi3)
/home/ape/libs/mspgcc-4.7.3/bin/../lib/gcc/msp430/4.7.3/../../../../msp430/lib/mmpy-16/libc.a(printf.o)
                              build/sky/obj/assert.o (printf)
/home/ape/libs/mspgcc-4.7.3/bin/../lib/gcc/msp430/4.7.3/../../../../msp430/lib/mmpy-16/libc.a(sprintf.o)
                              build/sky/obj/log.o (snprintf)
/home/ape/libs/mspgcc-4.7.3/bin/../lib/gcc/msp430/4.7.3/../../../../msp430/lib/mmpy-16/libc.a(vuprintf.o)
                              /home/ape/libs/mspgcc-4.7.3/bin/../lib/gcc/msp430/4.7.3/../../../../msp430/lib/mmpy-16/libc.a(printf.o) (vuprintf)
/home/ape/libs/mspgcc-4.7.3/bin/../lib/gcc/msp430/4.7.3/../../../../msp430/lib/mmpy-16/libc.a(puts.o)
                              build/sky/obj/assert.o (puts)
/home/ape/libs/mspgcc-4.7.3/bin/../lib/gcc/msp430/4.7.3/../../../../msp430/lib/mmpy-16/libc.a(rand.o)
                              build/sky/obj/random.o (rand)
/home/ape/libs/mspgcc-4.7.3/bin/../lib/gcc/msp430/4.7.3/../../../../msp430/lib/mmpy-16/libc.a(strcmp.o)
                              build/sky/obj/cfs-coffee.o (strcmp)
/home/ape/libs/mspgcc-4.7.3/bin/../lib/gcc/msp430/4.7.3/../../../../msp430/lib/mmpy-16/libc.a(strncmp.o)
                              build/sky/obj/sensors.o (strncmp)
/home/ape/libs/mspgcc-4.7.3/bin/../lib/gcc/msp430/4.7.3/../../../../msp430/lib/mmpy-16/libc.a(memcmp.o)
                              build/sky/obj/ip64-addr.o (memcmp)
/home/ape/libs/mspgcc-4.7.3/bin/../lib/gcc/msp430/4.7.3/../../../../msp430/lib/mmpy-16/libc.a(strncpy.o)
                              build/sky/obj/cfs-coffee.o (strncpy)
/home/ape/libs/mspgcc-4.7.3/bin/../lib/gcc/msp430/4.7.3/../../../../msp430/lib/mmpy-16/libc.a(memcpy.o)
                              build/sky/obj/aes-128.o (memcpy)
/home/ape/libs/mspgcc-4.7.3/bin/../lib/gcc/msp430/4.7.3/../../../../msp430/lib/mmpy-16/libc.a(memmove.o)
                              build/sky/obj/rpl-ext-header.o (memmove)
/home/ape/libs/mspgcc-4.7.3/bin/../lib/gcc/msp430/4.7.3/../../../../msp430/lib/mmpy-16/libc.a(memset.o)
                              build/sky/obj/cfs-coffee.o (memset)
/home/ape/libs/mspgcc-4.7.3/bin/../lib/gcc/msp430/4.7.3/mmpy-16/libgcc.a(_udivmod64.o)
                              /home/ape/libs/mspgcc-4.7.3/bin/../lib/gcc/msp430/4.7.3/../../../../msp430/lib/mmpy-16/libc.a(vuprintf.o) (__udivdi3)
/home/ape/libs/mspgcc-4.7.3/bin/../lib/gcc/msp430/4.7.3/mmpy-16/libcrt0.a(_reset_vector__.o)
                              (_reset_vector__)
/home/ape/libs/mspgcc-4.7.3/bin/../lib/gcc/msp430/4.7.3/mmpy-16/libcrt0.a(__watchdog_support.o)
                              /home/ape/libs/mspgcc-4.7.3/bin/../lib/gcc/msp430/4.7.3/mmpy-16/libcrt0.a(_reset_vector__.o) (__watchdog_support)
/home/ape/libs/mspgcc-4.7.3/bin/../lib/gcc/msp430/4.7.3/mmpy-16/libcrt0.a(__init_stack.o)
                              /home/ape/libs/mspgcc-4.7.3/bin/../lib/gcc/msp430/4.7.3/mmpy-16/libcrt0.a(_reset_vector__.o) (__init_stack)
/home/ape/libs/mspgcc-4.7.3/bin/../lib/gcc/msp430/4.7.3/mmpy-16/libcrt0.a(__low_level_init.o)
                              /home/ape/libs/mspgcc-4.7.3/bin/../lib/gcc/msp430/4.7.3/mmpy-16/libcrt0.a(_reset_vector__.o) (__low_level_init)
/home/ape/libs/mspgcc-4.7.3/bin/../lib/gcc/msp430/4.7.3/mmpy-16/libcrt0.a(_copy_data.o)
                              /home/ape/libs/mspgcc-4.7.3/bin/../lib/gcc/msp430/4.7.3/mmpy-16/libcrt0.a(_reset_vector__.o) (__do_copy_data)
/home/ape/libs/mspgcc-4.7.3/bin/../lib/gcc/msp430/4.7.3/mmpy-16/libcrt0.a(_clear_bss.o)
                              /home/ape/libs/mspgcc-4.7.3/bin/../lib/gcc/msp430/4.7.3/mmpy-16/libcrt0.a(_reset_vector__.o) (__do_clear_bss)
/home/ape/libs/mspgcc-4.7.3/bin/../lib/gcc/msp430/4.7.3/mmpy-16/libcrt0.a(__stop_progExec__.o)
                              /home/ape/libs/mspgcc-4.7.3/bin/../lib/gcc/msp430/4.7.3/mmpy-16/libcrt0.a(_reset_vector__.o) (__stop_progExec__)
/home/ape/libs/mspgcc-4.7.3/bin/../lib/gcc/msp430/4.7.3/mmpy-16/libcrt0.a(_endless_loop__.o)
                              /home/ape/libs/mspgcc-4.7.3/bin/../lib/gcc/msp430/4.7.3/mmpy-16/libcrt0.a(_reset_vector__.o) (_endless_loop__)
/home/ape/libs/mspgcc-4.7.3/bin/../lib/gcc/msp430/4.7.3/mmpy-16/libcrt0.a(_unexpected_.o)
                              /home/ape/libs/mspgcc-4.7.3/bin/../lib/gcc/msp430/4.7.3/mmpy-16/crt0ivtbl16.o (_unexpected_)

Allocating common symbols
Common symbol       size              file

compower_idle_activity
                    0x10              build/sky/obj/compower.o
uip_ds6_timer_ra    0x8               build/sky/obj/uip-ds6.o
cc2420_last_rssi    0x1               build/sky/obj/cc2420.o
uip_ds6_if          0x110             build/sky/obj/uip-ds6.o
uip_ds6_netif_addr_list_offset
                    0x1               build/sky/obj/uip-ds6.o
uip_len             0x2               build/sky/obj/uip6.o
cc2420_sfd_start_time
                    0x2               build/sky/obj/cc2420.o
button_hal_release_event
                    0x1               build/sky/obj/button-hal.o
uip_ds6_addr_size   0x1               build/sky/obj/uip-ds6.o
uip_sappdata        0x2               build/sky/obj/uip6.o
packetbuf_addrs     0x10              build/sky/obj/packetbuf.o
uip_ds6_prefix_list
                    0x5a              build/sky/obj/uip-ds6.o
uip_lladdr          0x8               build/sky/obj/uip6.o
uip_aligned_buf     0xf0              build/sky/obj/uip6.o
uip_flags           0x1               build/sky/obj/uip6.o
button_hal_periodic_event
                    0x1               build/sky/obj/button-hal.o
periodic_timer      0x14              build/sky/obj/link-stats.o
uip_ds6_timer_periodic
                    0xc               build/sky/obj/uip-ds6.o
cc2420_last_correlation
                    0x1               build/sky/obj/cc2420.o
linkaddr_node_addr  0x8               build/sky/obj/linkaddr.o
default_instance    0x2               build/sky/obj/rpl-dag.o
cc2420_authority_level_of_sender
                    0x2               build/sky/obj/cc2420.o
uip_udp_conn        0x2               build/sky/obj/uip6.o
packetbuf_attrs     0x18              build/sky/obj/packetbuf.o
msp430_dco_required
                    0x2               build/sky/obj/msp430.o
prefix_set          0x1               build/sky/obj/rpl-border-router.o
cc2420_sfd_counter  0x1               build/sky/obj/cc2420.o
instance_table      0x100             build/sky/obj/rpl-dag.o
uip_appdata         0x2               build/sky/obj/uip6.o
uip_conn            0x2               build/sky/obj/uip6.o
tcpip_event         0x1               build/sky/obj/tcpip.o
button_hal_press_event
                    0x1               build/sky/obj/button-hal.o
sensors_flags       0x2               build/sky/obj/contiki-sky-platform.o
serial_line_event_message
                    0x1               build/sky/obj/serial-line.o
cc2420_sfd_end_time
                    0x2               build/sky/obj/cc2420.o
sensors_event       0x1               build/sky/obj/sensors.o
ds2411_id           0x8               build/sky/obj/ds2411.o
uip_slen            0x2               build/sky/obj/uip6.o
uip_udp_conns       0xd0              build/sky/obj/uip6.o

Discarded input sections

 .data          0x0000000000000000        0x0 /home/ape/libs/mspgcc-4.7.3/bin/../lib/gcc/msp430/4.7.3/mmpy-16/crt0ivtbl16.o
 .bss           0x0000000000000000        0x0 /home/ape/libs/mspgcc-4.7.3/bin/../lib/gcc/msp430/4.7.3/mmpy-16/crt0ivtbl16.o
 .text.crt0     0x0000000000000000        0x0 /home/ape/libs/mspgcc-4.7.3/bin/../lib/gcc/msp430/4.7.3/mmpy-16/crt0ivtbl16.o
 .text          0x0000000000000000        0x0 build/sky/obj/aes-128.o
 .data          0x0000000000000000        0x0 build/sky/obj/aes-128.o
 .bss           0x0000000000000000       0xb0 build/sky/obj/aes-128.o
 .text.set_key  0x0000000000000000       0xbc build/sky/obj/aes-128.o
 .text.encrypt  0x0000000000000000      0x1ee build/sky/obj/aes-128.o
 .rodata        0x0000000000000000      0x104 build/sky/obj/aes-128.o
 .comment       0x0000000000000000       0x31 build/sky/obj/aes-128.o
 .text          0x0000000000000000        0x0 build/sky/obj/anti-replay.o
 .data          0x0000000000000000        0x0 build/sky/obj/anti-replay.o
 .bss           0x0000000000000000        0x0 build/sky/obj/anti-replay.o
 .comment       0x0000000000000000       0x31 build/sky/obj/anti-replay.o
 .text          0x0000000000000000        0x0 build/sky/obj/assert.o
 .data          0x0000000000000000        0x0 build/sky/obj/assert.o
 .bss           0x0000000000000000        0x0 build/sky/obj/assert.o
 .rodata        0x0000000000000000       0x6d build/sky/obj/assert.o
 .text._xassert
                0x0000000000000000       0x22 build/sky/obj/assert.o
 .comment       0x0000000000000000       0x31 build/sky/obj/assert.o
 .text          0x0000000000000000        0x0 build/sky/obj/atomic.o
 .data          0x0000000000000000        0x0 build/sky/obj/atomic.o
 .bss           0x0000000000000000        0x0 build/sky/obj/atomic.o
 .text.atomic_generic_cas_uint8
                0x0000000000000000       0x2c build/sky/obj/atomic.o
 .comment       0x0000000000000000       0x31 build/sky/obj/atomic.o
 .text          0x0000000000000000        0x0 build/sky/obj/autostart.o
 .data          0x0000000000000000        0x0 build/sky/obj/autostart.o
 .bss           0x0000000000000000        0x0 build/sky/obj/autostart.o
 .text.autostart_exit
                0x0000000000000000       0x14 build/sky/obj/autostart.o
 .text          0x0000000000000000        0x0 build/sky/obj/battery-sensor.o
 .data          0x0000000000000000        0x0 build/sky/obj/battery-sensor.o
 .bss           0x0000000000000000        0x0 build/sky/obj/battery-sensor.o
 .text.value    0x0000000000000000        0x6 build/sky/obj/battery-sensor.o
 .text.status   0x0000000000000000        0xc build/sky/obj/battery-sensor.o
 .text.configure
                0x0000000000000000       0x12 build/sky/obj/battery-sensor.o
 .rodata        0x0000000000000000       0x10 build/sky/obj/battery-sensor.o
 .comment       0x0000000000000000       0x31 build/sky/obj/battery-sensor.o
 .text          0x0000000000000000        0x0 build/sky/obj/border-router-embedded.o
 .text          0x0000000000000000        0x0 build/sky/obj/button-hal.o
 .data          0x0000000000000000        0xa build/sky/obj/button-hal.o
 .bss           0x0000000000000000       0x10 build/sky/obj/button-hal.o
 .text.process_thread_button_hal_process
                0x0000000000000000       0xd0 build/sky/obj/button-hal.o
 .text.duration_exceeded_callback
                0x0000000000000000       0x2e build/sky/obj/button-hal.o
 .text.press_release_handler
                0x0000000000000000       0x40 build/sky/obj/button-hal.o
 .text.button_hal_get_by_id
                0x0000000000000000       0x18 build/sky/obj/button-hal.o
 .text.button_hal_get_by_index
                0x0000000000000000       0x14 build/sky/obj/button-hal.o
 .text.button_hal_get_state
                0x0000000000000000       0x30 build/sky/obj/button-hal.o
 .text.debounce_handler
                0x0000000000000000       0x6e build/sky/obj/button-hal.o
 .text.button_hal_init
                0x0000000000000000       0xcc build/sky/obj/button-hal.o
 .rodata        0x0000000000000000       0x13 build/sky/obj/button-hal.o
 .comment       0x0000000000000000       0x31 build/sky/obj/button-hal.o
 COMMON         0x0000000000000000        0x3 build/sky/obj/button-hal.o
 .text          0x0000000000000000        0x0 build/sky/obj/button-sensor.o
 .data          0x0000000000000000        0x0 build/sky/obj/button-sensor.o
 .text          0x0000000000000000        0x0 build/sky/obj/cc2420-arch-sfd.o
 .data          0x0000000000000000        0x0 build/sky/obj/cc2420-arch-sfd.o
 .bss           0x0000000000000000        0x0 build/sky/obj/cc2420-arch-sfd.o
 .text.cc2420_arch_sfd_init
                0x0000000000000000       0x26 build/sky/obj/cc2420-arch-sfd.o
 .text          0x0000000000000000        0x0 build/sky/obj/cc2420-arch.o
 .data          0x0000000000000000        0x0 build/sky/obj/cc2420-arch.o
 .bss           0x0000000000000000        0x0 build/sky/obj/cc2420-arch.o
 .text          0x0000000000000000        0x0 build/sky/obj/cc2420-tsch-15ms.o
 .data          0x0000000000000000        0x0 build/sky/obj/cc2420-tsch-15ms.o
 .bss           0x0000000000000000        0x0 build/sky/obj/cc2420-tsch-15ms.o
 .rodata        0x0000000000000000       0x18 build/sky/obj/cc2420-tsch-15ms.o
 .comment       0x0000000000000000       0x31 build/sky/obj/cc2420-tsch-15ms.o
 .text          0x0000000000000000        0x0 build/sky/obj/cc2420.o
 .text.cc2420_get_channel
                0x0000000000000000        0x6 build/sky/obj/cc2420.o
 .text          0x0000000000000000        0x0 build/sky/obj/ccm-star-packetbuf.o
 .data          0x0000000000000000        0x0 build/sky/obj/ccm-star-packetbuf.o
 .bss           0x0000000000000000        0x0 build/sky/obj/ccm-star-packetbuf.o
 .comment       0x0000000000000000       0x31 build/sky/obj/ccm-star-packetbuf.o
 .text          0x0000000000000000        0x0 build/sky/obj/ccm-star.o
 .data          0x0000000000000000        0x0 build/sky/obj/ccm-star.o
 .bss           0x0000000000000000        0x0 build/sky/obj/ccm-star.o
 .text.set_key  0x0000000000000000        0x6 build/sky/obj/ccm-star.o
 .text.ctr_step
                0x0000000000000000       0x6a build/sky/obj/ccm-star.o
 .text.aead     0x0000000000000000      0x208 build/sky/obj/ccm-star.o
 .rodata        0x0000000000000000        0x4 build/sky/obj/ccm-star.o
 .comment       0x0000000000000000       0x31 build/sky/obj/ccm-star.o
 .text          0x0000000000000000        0x0 build/sky/obj/cfs-coffee.o
 .data          0x0000000000000000        0x0 build/sky/obj/cfs-coffee.o
 .bss           0x0000000000000000       0x90 build/sky/obj/cfs-coffee.o
 .text.next_file
                0x0000000000000000       0x22 build/sky/obj/cfs-coffee.o
 .text.load_file
                0x0000000000000000       0x74 build/sky/obj/cfs-coffee.o
 .text.read_header
                0x0000000000000000       0x26 build/sky/obj/cfs-coffee.o
 .text.find_file
                0x0000000000000000       0xaa build/sky/obj/cfs-coffee.o
 .text.find_contiguous_pages
                0x0000000000000000       0x74 build/sky/obj/cfs-coffee.o
 .text.file_end
                0x0000000000000000       0xd0 build/sky/obj/cfs-coffee.o
 .text.write_header
                0x0000000000000000       0x2a build/sky/obj/cfs-coffee.o
 .text.remove_by_page.isra.0
                0x0000000000000000       0xae build/sky/obj/cfs-coffee.o
 .text.reserve  0x0000000000000000      0x220 build/sky/obj/cfs-coffee.o
 .text.read_log_page
                0x0000000000000000      0x1fc build/sky/obj/cfs-coffee.o
 .text.cfs_open
                0x0000000000000000       0xc2 build/sky/obj/cfs-coffee.o
 .text.cfs_close
                0x0000000000000000       0x2c build/sky/obj/cfs-coffee.o
 .text.cfs_seek
                0x0000000000000000       0xa0 build/sky/obj/cfs-coffee.o
 .text.cfs_remove
                0x0000000000000000       0x1a build/sky/obj/cfs-coffee.o
 .text.cfs_read
                0x0000000000000000      0x178 build/sky/obj/cfs-coffee.o
 .text.merge_log
                0x0000000000000000      0x1ac build/sky/obj/cfs-coffee.o
 .text.cfs_write
                0x0000000000000000      0x598 build/sky/obj/cfs-coffee.o
 .text.cfs_opendir
                0x0000000000000000        0xc build/sky/obj/cfs-coffee.o
 .text.cfs_readdir
                0x0000000000000000       0x76 build/sky/obj/cfs-coffee.o
 .text.cfs_closedir
                0x0000000000000000        0x2 build/sky/obj/cfs-coffee.o
 .text.cfs_coffee_reserve
                0x0000000000000000       0x28 build/sky/obj/cfs-coffee.o
 .text.cfs_coffee_configure_log
                0x0000000000000000       0x62 build/sky/obj/cfs-coffee.o
 .text.cfs_coffee_set_io_semantics
                0x0000000000000000       0x20 build/sky/obj/cfs-coffee.o
 .text.cfs_coffee_format
                0x0000000000000000       0x4e build/sky/obj/cfs-coffee.o
 .comment       0x0000000000000000       0x31 build/sky/obj/cfs-coffee.o
 .text          0x0000000000000000        0x0 build/sky/obj/circular-list.o
 .data          0x0000000000000000        0x0 build/sky/obj/circular-list.o
 .bss           0x0000000000000000        0x0 build/sky/obj/circular-list.o
 .text.circular_list_init
                0x0000000000000000        0x6 build/sky/obj/circular-list.o
 .text.circular_list_head
                0x0000000000000000        0x4 build/sky/obj/circular-list.o
 .text.circular_list_tail
                0x0000000000000000       0x18 build/sky/obj/circular-list.o
 .text.circular_list_remove
                0x0000000000000000       0x34 build/sky/obj/circular-list.o
 .text.circular_list_add
                0x0000000000000000       0x2e build/sky/obj/circular-list.o
 .text.circular_list_length
                0x0000000000000000       0x20 build/sky/obj/circular-list.o
 .text.circular_list_is_empty
                0x0000000000000000        0xe build/sky/obj/circular-list.o
 .comment       0x0000000000000000       0x31 build/sky/obj/circular-list.o
 .text          0x0000000000000000        0x0 build/sky/obj/clock.o
 .data          0x0000000000000000        0x0 build/sky/obj/clock.o
 .text.clock_set
                0x0000000000000000       0x16 build/sky/obj/clock.o
 .text.clock_fine_max
                0x0000000000000000        0x6 build/sky/obj/clock.o
 .text.clock_fine
                0x0000000000000000        0xc build/sky/obj/clock.o
 .text.clock_wait
                0x0000000000000000       0x30 build/sky/obj/clock.o
 .text.clock_set_seconds
                0x0000000000000000       0x1c build/sky/obj/clock.o
 .text.clock_counter
                0x0000000000000000        0xe build/sky/obj/clock.o
 .text          0x0000000000000000        0x0 build/sky/obj/compower.o
 .data          0x0000000000000000        0x0 build/sky/obj/compower.o
 .bss           0x0000000000000000       0x10 build/sky/obj/compower.o
 .text.compower_accumulate
                0x0000000000000000       0x5c build/sky/obj/compower.o
 .text.compower_clear
                0x0000000000000000       0x22 build/sky/obj/compower.o
 .text.compower_init
                0x0000000000000000        0xa build/sky/obj/compower.o
 .comment       0x0000000000000000       0x31 build/sky/obj/compower.o
 COMMON         0x0000000000000000       0x10 build/sky/obj/compower.o
 .text          0x0000000000000000        0x0 build/sky/obj/contiki-main.o
 .data          0x0000000000000000        0x0 build/sky/obj/contiki-main.o
 .bss           0x0000000000000000        0x0 build/sky/obj/contiki-main.o
 .text          0x0000000000000000        0x0 build/sky/obj/contiki-sky-platform.o
 .bss           0x0000000000000000        0x0 build/sky/obj/contiki-sky-platform.o
 .text          0x0000000000000000        0x0 build/sky/obj/crc16.o
 .data          0x0000000000000000        0x0 build/sky/obj/crc16.o
 .bss           0x0000000000000000        0x0 build/sky/obj/crc16.o
 .text.crc16_add
                0x0000000000000000       0x56 build/sky/obj/crc16.o
 .text.crc16_data
                0x0000000000000000       0x2a build/sky/obj/crc16.o
 .comment       0x0000000000000000       0x31 build/sky/obj/crc16.o
 .text          0x0000000000000000        0x0 build/sky/obj/csma-output.o
 .text          0x0000000000000000        0x0 build/sky/obj/csma-security.o
 .data          0x0000000000000000        0x0 build/sky/obj/csma-security.o
 .bss           0x0000000000000000        0x0 build/sky/obj/csma-security.o
 .text          0x0000000000000000        0x0 build/sky/obj/csma.o
 .data          0x0000000000000000        0x0 build/sky/obj/csma.o
 .bss           0x0000000000000000        0x0 build/sky/obj/csma.o
 .text          0x0000000000000000        0x0 build/sky/obj/ctimer.o
 .text.ctimer_restart
                0x0000000000000000       0x30 build/sky/obj/ctimer.o
 .text.ctimer_expired
                0x0000000000000000       0x30 build/sky/obj/ctimer.o
 .text          0x0000000000000000        0x0 build/sky/obj/dbl-circ-list.o
 .data          0x0000000000000000        0x0 build/sky/obj/dbl-circ-list.o
 .bss           0x0000000000000000        0x0 build/sky/obj/dbl-circ-list.o
 .text.dbl_circ_list_init
                0x0000000000000000        0x6 build/sky/obj/dbl-circ-list.o
 .text.dbl_circ_list_head
                0x0000000000000000        0x4 build/sky/obj/dbl-circ-list.o
 .text.dbl_circ_list_tail
                0x0000000000000000       0x18 build/sky/obj/dbl-circ-list.o
 .text.dbl_circ_list_remove
                0x0000000000000000       0x42 build/sky/obj/dbl-circ-list.o
 .text.dbl_circ_list_add_head
                0x0000000000000000       0x40 build/sky/obj/dbl-circ-list.o
 .text.dbl_circ_list_add_tail
                0x0000000000000000       0x40 build/sky/obj/dbl-circ-list.o
 .text.dbl_circ_list_add_after
                0x0000000000000000       0x2e build/sky/obj/dbl-circ-list.o
 .text.dbl_circ_list_add_before
                0x0000000000000000       0x40 build/sky/obj/dbl-circ-list.o
 .text.dbl_circ_list_length
                0x0000000000000000       0x20 build/sky/obj/dbl-circ-list.o
 .text.dbl_circ_list_is_empty
                0x0000000000000000        0xe build/sky/obj/dbl-circ-list.o
 .comment       0x0000000000000000       0x31 build/sky/obj/dbl-circ-list.o
 .text          0x0000000000000000        0x0 build/sky/obj/dbl-list.o
 .data          0x0000000000000000        0x0 build/sky/obj/dbl-list.o
 .bss           0x0000000000000000        0x0 build/sky/obj/dbl-list.o
 .text.dbl_list_init
                0x0000000000000000        0x6 build/sky/obj/dbl-list.o
 .text.dbl_list_head
                0x0000000000000000        0x4 build/sky/obj/dbl-list.o
 .text.dbl_list_tail
                0x0000000000000000       0x12 build/sky/obj/dbl-list.o
 .text.dbl_list_remove
                0x0000000000000000       0x38 build/sky/obj/dbl-list.o
 .text.dbl_list_add_head
                0x0000000000000000       0x2c build/sky/obj/dbl-list.o
 .text.dbl_list_add_tail
                0x0000000000000000       0x32 build/sky/obj/dbl-list.o
 .text.dbl_list_add_after
                0x0000000000000000       0x32 build/sky/obj/dbl-list.o
 .text.dbl_list_add_before
                0x0000000000000000       0x44 build/sky/obj/dbl-list.o
 .text.dbl_list_length
                0x0000000000000000       0x18 build/sky/obj/dbl-list.o
 .text.dbl_list_is_empty
                0x0000000000000000        0xe build/sky/obj/dbl-list.o
 .comment       0x0000000000000000       0x31 build/sky/obj/dbl-list.o
 .text          0x0000000000000000        0x0 build/sky/obj/ds2411.o
 .data          0x0000000000000000        0x0 build/sky/obj/ds2411.o
 .bss           0x0000000000000000        0x0 build/sky/obj/ds2411.o
 .text          0x0000000000000000        0x0 build/sky/obj/energest.o
 .data          0x0000000000000000        0x0 build/sky/obj/energest.o
 .bss           0x0000000000000000        0x0 build/sky/obj/energest.o
 .text.energest_get_total_time
                0x0000000000000000        0xa build/sky/obj/energest.o
 .text          0x0000000000000000        0x0 build/sky/obj/etimer.o
 .text.etimer_reset_with_new_interval
                0x0000000000000000       0x26 build/sky/obj/etimer.o
 .text.etimer_restart
                0x0000000000000000       0x12 build/sky/obj/etimer.o
 .text.etimer_adjust
                0x0000000000000000       0x1a build/sky/obj/etimer.o
 .text.etimer_start_time
                0x0000000000000000        0x8 build/sky/obj/etimer.o
 .text          0x0000000000000000        0x0 build/sky/obj/flash.o
 .data          0x0000000000000000        0x0 build/sky/obj/flash.o
 .bss           0x0000000000000000        0x4 build/sky/obj/flash.o
 .text.flash_setup
                0x0000000000000000       0x2c build/sky/obj/flash.o
 .text.flash_done
                0x0000000000000000       0x14 build/sky/obj/flash.o
 .text.flash_clear
                0x0000000000000000       0x28 build/sky/obj/flash.o
 .text.flash_write
                0x0000000000000000       0x28 build/sky/obj/flash.o
 .comment       0x0000000000000000       0x31 build/sky/obj/flash.o
 .text          0x0000000000000000        0x0 build/sky/obj/frame802154.o
 .bss           0x0000000000000000        0x0 build/sky/obj/frame802154.o
 .text.frame802154_set_pan_id
                0x0000000000000000        0x6 build/sky/obj/frame802154.o
 .text.frame802154_check_dest_panid
                0x0000000000000000       0x3a build/sky/obj/frame802154.o
 .text.frame802154_extract_linkaddr
                0x0000000000000000       0x9c build/sky/obj/frame802154.o
 .text          0x0000000000000000        0x0 build/sky/obj/frame802154e-ie.o
 .data          0x0000000000000000        0x0 build/sky/obj/frame802154e-ie.o
 .bss           0x0000000000000000        0x0 build/sky/obj/frame802154e-ie.o
 .text.frame80215e_create_ie_header_ack_nack_time_correction
                0x0000000000000000       0x38 build/sky/obj/frame802154e-ie.o
 .text.frame80215e_create_ie_header_list_termination_1
                0x0000000000000000       0x1c build/sky/obj/frame802154e-ie.o
 .text.frame80215e_create_ie_header_list_termination_2
                0x0000000000000000       0x1e build/sky/obj/frame802154e-ie.o
 .text.frame80215e_create_ie_payload_list_termination
                0x0000000000000000       0x1c build/sky/obj/frame802154e-ie.o
 .text.frame80215e_create_ie_mlme
                0x0000000000000000       0x28 build/sky/obj/frame802154e-ie.o
 .text.frame80215e_create_ie_tsch_synchronization
                0x0000000000000000       0x56 build/sky/obj/frame802154e-ie.o
 .text.frame80215e_create_ie_tsch_slotframe_and_link
                0x0000000000000000       0xd4 build/sky/obj/frame802154e-ie.o
 .text.frame80215e_create_ie_tsch_timeslot
                0x0000000000000000       0x6a build/sky/obj/frame802154e-ie.o
 .text.frame80215e_create_ie_tsch_channel_hopping_sequence
                0x0000000000000000       0xa2 build/sky/obj/frame802154e-ie.o
 .text.frame802154e_parse_information_elements
                0x0000000000000000      0x38a build/sky/obj/frame802154e-ie.o
 .comment       0x0000000000000000       0x31 build/sky/obj/frame802154e-ie.o
 .text          0x0000000000000000        0x0 build/sky/obj/framer-802154.o
 .data          0x0000000000000000        0x0 build/sky/obj/framer-802154.o
 .bss           0x0000000000000000        0x0 build/sky/obj/framer-802154.o
 .text          0x0000000000000000        0x0 build/sky/obj/gpio-hal.o
 .data          0x0000000000000000        0x0 build/sky/obj/gpio-hal.o
 .bss           0x0000000000000000        0x2 build/sky/obj/gpio-hal.o
 .text.gpio_hal_register_handler
                0x0000000000000000        0xc build/sky/obj/gpio-hal.o
 .text.gpio_hal_event_handler
                0x0000000000000000       0x54 build/sky/obj/gpio-hal.o
 .text.gpio_hal_init
                0x0000000000000000        0xe build/sky/obj/gpio-hal.o
 .text.gpio_hal_arch_port_toggle_pin
                0x0000000000000000       0x1e build/sky/obj/gpio-hal.o
 .text.gpio_hal_arch_port_toggle_pins
                0x0000000000000000       0x2c build/sky/obj/gpio-hal.o
 .text.gpio_hal_arch_no_port_toggle_pin
                0x0000000000000000       0x22 build/sky/obj/gpio-hal.o
 .text.gpio_hal_arch_no_port_toggle_pins
                0x0000000000000000       0x2c build/sky/obj/gpio-hal.o
 .comment       0x0000000000000000       0x31 build/sky/obj/gpio-hal.o
 .text          0x0000000000000000        0x0 build/sky/obj/heapmem.o
 .data          0x0000000000000000        0x6 build/sky/obj/heapmem.o
 .bss           0x0000000000000000        0x6 build/sky/obj/heapmem.o
 .text.free_chunk
                0x0000000000000000       0x44 build/sky/obj/heapmem.o
 .text.remove_chunk_from_free_list
                0x0000000000000000       0x2c build/sky/obj/heapmem.o
 .text.split_chunk
                0x0000000000000000       0x3c build/sky/obj/heapmem.o
 .text.coalesce_chunks
                0x0000000000000000       0x44 build/sky/obj/heapmem.o
 .rodata        0x0000000000000000      0x14b build/sky/obj/heapmem.o
 .text.heapmem_zone_register
                0x0000000000000000       0x56 build/sky/obj/heapmem.o
 .text.heapmem_zone_alloc
                0x0000000000000000      0x11c build/sky/obj/heapmem.o
 .text.heapmem_free
                0x0000000000000000       0x92 build/sky/obj/heapmem.o
 .text.heapmem_realloc
                0x0000000000000000      0x124 build/sky/obj/heapmem.o
 .text.heapmem_stats
                0x0000000000000000       0x74 build/sky/obj/heapmem.o
 .text.heapmem_alignment
                0x0000000000000000        0x4 build/sky/obj/heapmem.o
 .comment       0x0000000000000000       0x31 build/sky/obj/heapmem.o
 .text          0x0000000000000000        0x0 build/sky/obj/hexconv.o
 .data          0x0000000000000000        0x0 build/sky/obj/hexconv.o
 .bss           0x0000000000000000        0x0 build/sky/obj/hexconv.o
 .text.fromhex  0x0000000000000000       0x40 build/sky/obj/hexconv.o
 .rodata        0x0000000000000000       0x16 build/sky/obj/hexconv.o
 .text.hexconv_hexlify
                0x0000000000000000       0x60 build/sky/obj/hexconv.o
 .text.hexconv_unhexlify
                0x0000000000000000       0x76 build/sky/obj/hexconv.o
 .text.hexconv_print
                0x0000000000000000       0x2e build/sky/obj/hexconv.o
 .comment       0x0000000000000000       0x31 build/sky/obj/hexconv.o
 .text          0x0000000000000000        0x0 build/sky/obj/i2c.o
 .data          0x0000000000000000        0x0 build/sky/obj/i2c.o
 .bss           0x0000000000000000        0x3 build/sky/obj/i2c.o
 .text.i2c_enable
                0x0000000000000000       0x3e build/sky/obj/i2c.o
 .text.i2c_disable
                0x0000000000000000       0x36 build/sky/obj/i2c.o
 .text.i2c_start
                0x0000000000000000       0x46 build/sky/obj/i2c.o
 .text.i2c_stop
                0x0000000000000000       0x28 build/sky/obj/i2c.o
 .text.i2c_write
                0x0000000000000000       0x5a build/sky/obj/i2c.o
 .text.i2c_read
                0x0000000000000000       0x48 build/sky/obj/i2c.o
 .comment       0x0000000000000000       0x31 build/sky/obj/i2c.o
 .text          0x0000000000000000        0x0 build/sky/obj/ifft.o
 .data          0x0000000000000000        0x0 build/sky/obj/ifft.o
 .bss           0x0000000000000000        0x0 build/sky/obj/ifft.o
 .text.ifft     0x0000000000000000      0x324 build/sky/obj/ifft.o
 .rodata        0x0000000000000000       0x78 build/sky/obj/ifft.o
 .comment       0x0000000000000000       0x31 build/sky/obj/ifft.o
 .text          0x0000000000000000        0x0 build/sky/obj/int-master.o
 .data          0x0000000000000000        0x0 build/sky/obj/int-master.o
 .bss           0x0000000000000000        0x0 build/sky/obj/int-master.o
 .text.int_master_enable
                0x0000000000000000        0x4 build/sky/obj/int-master.o
 .text.int_master_read_and_disable
                0x0000000000000000        0x8 build/sky/obj/int-master.o
 .text.int_master_status_set
                0x0000000000000000        0x4 build/sky/obj/int-master.o
 .text.int_master_is_enabled
                0x0000000000000000       0x12 build/sky/obj/int-master.o
 .comment       0x0000000000000000       0x31 build/sky/obj/int-master.o
 .text          0x0000000000000000        0x0 build/sky/obj/ip64-addr.o
 .data          0x0000000000000000       0x12 build/sky/obj/ip64-addr.o
 .bss           0x0000000000000000        0x0 build/sky/obj/ip64-addr.o
 .text.ip64_addr_copy4
                0x0000000000000000        0x8 build/sky/obj/ip64-addr.o
 .text.ip64_addr_copy6
                0x0000000000000000        0xa build/sky/obj/ip64-addr.o
 .text.ip64_addr_4to6
                0x0000000000000000       0x34 build/sky/obj/ip64-addr.o
 .text.ip64_addr_is_ip64
                0x0000000000000000       0x28 build/sky/obj/ip64-addr.o
 .text.ip64_addr_6to4
                0x0000000000000000       0x34 build/sky/obj/ip64-addr.o
 .text.ip64_addr_set_prefix
                0x0000000000000000       0x1a build/sky/obj/ip64-addr.o
 .comment       0x0000000000000000       0x31 build/sky/obj/ip64-addr.o
 .text          0x0000000000000000        0x0 build/sky/obj/leds-arch.o
 .data          0x0000000000000000        0x0 build/sky/obj/leds-arch.o
 .bss           0x0000000000000000        0x0 build/sky/obj/leds-arch.o
 .text          0x0000000000000000        0x0 build/sky/obj/leds.o
 .data          0x0000000000000000        0x0 build/sky/obj/leds.o
 .bss           0x0000000000000000        0x0 build/sky/obj/leds.o
 .text.leds_get
                0x0000000000000000        0x6 build/sky/obj/leds.o
 .text.leds_set
                0x0000000000000000        0x6 build/sky/obj/leds.o
 .text.leds_toggle
                0x0000000000000000       0x12 build/sky/obj/leds.o
 .text.leds_blink
                0x0000000000000000       0x22 build/sky/obj/leds.o
 .text          0x0000000000000000        0x0 build/sky/obj/light-sensor.o
 .data          0x0000000000000000        0x0 build/sky/obj/light-sensor.o
 .bss           0x0000000000000000        0x0 build/sky/obj/light-sensor.o
 .text.value    0x0000000000000000       0x1a build/sky/obj/light-sensor.o
 .text.status   0x0000000000000000        0xc build/sky/obj/light-sensor.o
 .text.configure
                0x0000000000000000       0x10 build/sky/obj/light-sensor.o
 .rodata        0x0000000000000000        0xe build/sky/obj/light-sensor.o
 .comment       0x0000000000000000       0x31 build/sky/obj/light-sensor.o
 .text          0x0000000000000000        0x0 build/sky/obj/link-stats.o
 .text.link_stats_get_lladdr
                0x0000000000000000        0xc build/sky/obj/link-stats.o
 .text.link_stats_reset
                0x0000000000000000       0x2a build/sky/obj/link-stats.o
 .text          0x0000000000000000        0x0 build/sky/obj/linkaddr.o
 .data          0x0000000000000000        0x0 build/sky/obj/linkaddr.o
 .bss           0x0000000000000000        0x0 build/sky/obj/linkaddr.o
 .text          0x0000000000000000        0x0 build/sky/obj/list.o
 .data          0x0000000000000000        0x0 build/sky/obj/list.o
 .bss           0x0000000000000000        0x0 build/sky/obj/list.o
 .text.list_copy
                0x0000000000000000        0x6 build/sky/obj/list.o
 .text.list_chop
                0x0000000000000000       0x1a build/sky/obj/list.o
 .text.list_pop
                0x0000000000000000        0xe build/sky/obj/list.o
 .text.list_insert
                0x0000000000000000       0x26 build/sky/obj/list.o
 .text.list_contains
                0x0000000000000000       0x12 build/sky/obj/list.o
 .text          0x0000000000000000        0x0 build/sky/obj/log.o
 .text.log_6addr_compact_snprint
                0x0000000000000000       0x5c build/sky/obj/log.o
 .text.log_6addr_compact
                0x0000000000000000       0x2e build/sky/obj/log.o
 .text.log_lladdr_compact
                0x0000000000000000       0x3e build/sky/obj/log.o
 .text.log_bytes
                0x0000000000000000       0x24 build/sky/obj/log.o
 .text.log_set_level
                0x0000000000000000       0x58 build/sky/obj/log.o
 .text.log_get_level
                0x0000000000000000       0x48 build/sky/obj/log.o
 .text.log_level_to_str
                0x0000000000000000       0x14 build/sky/obj/log.o
 .text          0x0000000000000000        0x0 build/sky/obj/lpm.o
 .data          0x0000000000000000        0x0 build/sky/obj/lpm.o
 .bss           0x0000000000000000        0x1 build/sky/obj/lpm.o
 .text.lpm_on   0x0000000000000000        0x6 build/sky/obj/lpm.o
 .text.lpm_off  0x0000000000000000        0x6 build/sky/obj/lpm.o
 .comment       0x0000000000000000       0x31 build/sky/obj/lpm.o
 .text          0x0000000000000000        0x0 build/sky/obj/mac-sequence.o
 .data          0x0000000000000000        0x0 build/sky/obj/mac-sequence.o
 .text          0x0000000000000000        0x0 build/sky/obj/mac.o
 .data          0x0000000000000000        0x0 build/sky/obj/mac.o
 .bss           0x0000000000000000        0x0 build/sky/obj/mac.o
 .text          0x0000000000000000        0x0 build/sky/obj/memb.o
 .data          0x0000000000000000        0x0 build/sky/obj/memb.o
 .bss           0x0000000000000000        0x0 build/sky/obj/memb.o
 .text          0x0000000000000000        0x0 build/sky/obj/msp430.o
 .bss           0x0000000000000000        0x0 build/sky/obj/msp430.o
 .text.msp430_remove_lpm_req
                0x0000000000000000        0xc build/sky/obj/msp430.o
 .text.sbrk     0x0000000000000000       0x1e build/sky/obj/msp430.o
 .text          0x0000000000000000        0x0 build/sky/obj/mutex.o
 .data          0x0000000000000000        0x0 build/sky/obj/mutex.o
 .bss           0x0000000000000000        0x0 build/sky/obj/mutex.o
 .text.mutex_generic_try_lock
                0x0000000000000000       0x22 build/sky/obj/mutex.o
 .text.mutex_generic_unlock
                0x0000000000000000       0x14 build/sky/obj/mutex.o
 .comment       0x0000000000000000       0x31 build/sky/obj/mutex.o
 .text          0x0000000000000000        0x0 build/sky/obj/nbr-table.o
 .text.used_count
                0x0000000000000000       0x22 build/sky/obj/nbr-table.o
 .text.nbr_table_count_entries
                0x0000000000000000       0x16 build/sky/obj/nbr-table.o
 .text.nbr_table_gc_get_worst
                0x0000000000000000       0x28 build/sky/obj/nbr-table.o
 .text.nbr_table_can_accept_new
                0x0000000000000000        0x4 build/sky/obj/nbr-table.o
 .text.nbr_table_entry_is_allowed
                0x0000000000000000        0xa build/sky/obj/nbr-table.o
 .text.nbr_table_clear
                0x0000000000000000       0x16 build/sky/obj/nbr-table.o
 .text.nbr_table_key_head
                0x0000000000000000        0xa build/sky/obj/nbr-table.o
 .text.nbr_table_key_next
                0x0000000000000000        0x6 build/sky/obj/nbr-table.o
 .text          0x0000000000000000        0x0 build/sky/obj/net-debug.o
 .data          0x0000000000000000        0x0 build/sky/obj/net-debug.o
 .bss           0x0000000000000000        0x0 build/sky/obj/net-debug.o
 .rodata        0x0000000000000000       0x14 build/sky/obj/net-debug.o
 .text.net_debug_lladdr_print
                0x0000000000000000       0x44 build/sky/obj/net-debug.o
 .comment       0x0000000000000000       0x31 build/sky/obj/net-debug.o
 .text          0x0000000000000000        0x0 build/sky/obj/netstack.o
 .data          0x0000000000000000        0x0 build/sky/obj/netstack.o
 .text.netstack_ip_packet_processor_add
                0x0000000000000000       0x10 build/sky/obj/netstack.o
 .text.uip_ds6_ip_packet_processor_rm
                0x0000000000000000        0xc build/sky/obj/netstack.o
 .text          0x0000000000000000        0x0 build/sky/obj/node-id.o
 .data          0x0000000000000000        0x0 build/sky/obj/node-id.o
 .text          0x0000000000000000        0x0 build/sky/obj/nullframer.o
 .data          0x0000000000000000        0x0 build/sky/obj/nullframer.o
 .bss           0x0000000000000000        0x0 build/sky/obj/nullframer.o
 .text.hdr_length
                0x0000000000000000        0x4 build/sky/obj/nullframer.o
 .text.create   0x0000000000000000        0x4 build/sky/obj/nullframer.o
 .text.parse    0x0000000000000000       0x80 build/sky/obj/nullframer.o
 .rodata        0x0000000000000000        0x6 build/sky/obj/nullframer.o
 .comment       0x0000000000000000       0x31 build/sky/obj/nullframer.o
 .text          0x0000000000000000        0x0 build/sky/obj/nullradio.o
 .data          0x0000000000000000        0x0 build/sky/obj/nullradio.o
 .bss           0x0000000000000000        0x0 build/sky/obj/nullradio.o
 .text.init     0x0000000000000000        0x4 build/sky/obj/nullradio.o
 .text.prepare  0x0000000000000000        0x4 build/sky/obj/nullradio.o
 .text.transmit
                0x0000000000000000        0x4 build/sky/obj/nullradio.o
 .text.send     0x0000000000000000        0x4 build/sky/obj/nullradio.o
 .text.radio_read
                0x0000000000000000        0x4 build/sky/obj/nullradio.o
 .text.channel_clear
                0x0000000000000000        0x4 build/sky/obj/nullradio.o
 .text.receiving_packet
                0x0000000000000000        0x4 build/sky/obj/nullradio.o
 .text.pending_packet
                0x0000000000000000        0x4 build/sky/obj/nullradio.o
 .text.on       0x0000000000000000        0x4 build/sky/obj/nullradio.o
 .text.off      0x0000000000000000        0x4 build/sky/obj/nullradio.o
 .text.get_value
                0x0000000000000000       0x1a build/sky/obj/nullradio.o
 .text.set_value
                0x0000000000000000        0x4 build/sky/obj/nullradio.o
 .text.get_object
                0x0000000000000000        0x4 build/sky/obj/nullradio.o
 .text.set_object
                0x0000000000000000        0x4 build/sky/obj/nullradio.o
 .rodata        0x0000000000000000       0x1c build/sky/obj/nullradio.o
 .comment       0x0000000000000000       0x31 build/sky/obj/nullradio.o
 .text          0x0000000000000000        0x0 build/sky/obj/packetbuf.o
 .data          0x0000000000000000        0x0 build/sky/obj/packetbuf.o
 .text.packetbuf_remaininglen
                0x0000000000000000        0xe build/sky/obj/packetbuf.o
 .text          0x0000000000000000        0x0 build/sky/obj/platform.o
 .data          0x0000000000000000        0x0 build/sky/obj/platform.o
 .text.uip_log  0x0000000000000000        0x6 build/sky/obj/platform.o
 .text          0x0000000000000000        0x0 build/sky/obj/process.o
 .data          0x0000000000000000        0x0 build/sky/obj/process.o
 .text.process_exit
                0x0000000000000000        0xa build/sky/obj/process.o
 .text.process_is_running
                0x0000000000000000        0xe build/sky/obj/process.o
 .text          0x0000000000000000        0x0 build/sky/obj/psock.o
 .data          0x0000000000000000        0x0 build/sky/obj/psock.o
 .bss           0x0000000000000000        0x0 build/sky/obj/psock.o
 .text.psock_send
                0x0000000000000000       0xae build/sky/obj/psock.o
 .text.psock_generator_send
                0x0000000000000000       0x7c build/sky/obj/psock.o
 .text.psock_datalen
                0x0000000000000000        0xc build/sky/obj/psock.o
 .text.psock_newdata
                0x0000000000000000       0x26 build/sky/obj/psock.o
 .text.psock_readto
                0x0000000000000000       0xbc build/sky/obj/psock.o
 .text.psock_readbuf_len
                0x0000000000000000       0xe4 build/sky/obj/psock.o
 .text.psock_init
                0x0000000000000000       0x22 build/sky/obj/psock.o
 .comment       0x0000000000000000       0x31 build/sky/obj/psock.o
 .text          0x0000000000000000        0x0 build/sky/obj/queuebuf.o
 .text.queuebuf_update_from_packetbuf
                0x0000000000000000       0x22 build/sky/obj/queuebuf.o
 .text.queuebuf_dataptr
                0x0000000000000000       0x1c build/sky/obj/queuebuf.o
 .text.queuebuf_datalen
                0x0000000000000000        0x8 build/sky/obj/queuebuf.o
 .text.queuebuf_addr
                0x0000000000000000       0x16 build/sky/obj/queuebuf.o
 .text.queuebuf_attr
                0x0000000000000000        0xe build/sky/obj/queuebuf.o
 .text.queuebuf_debug_print
                0x0000000000000000        0x2 build/sky/obj/queuebuf.o
 .text          0x0000000000000000        0x0 build/sky/obj/random.o
 .data          0x0000000000000000        0x0 build/sky/obj/random.o
 .bss           0x0000000000000000        0x0 build/sky/obj/random.o
 .text          0x0000000000000000        0x0 build/sky/obj/ringbuf.o
 .data          0x0000000000000000        0x0 build/sky/obj/ringbuf.o
 .bss           0x0000000000000000        0x0 build/sky/obj/ringbuf.o
 .text.ringbuf_init
                0x0000000000000000       0x14 build/sky/obj/ringbuf.o
 .text.ringbuf_put
                0x0000000000000000       0x38 build/sky/obj/ringbuf.o
 .text.ringbuf_get
                0x0000000000000000       0x32 build/sky/obj/ringbuf.o
 .text.ringbuf_size
                0x0000000000000000        0x8 build/sky/obj/ringbuf.o
 .text.ringbuf_elements
                0x0000000000000000       0x12 build/sky/obj/ringbuf.o
 .comment       0x0000000000000000       0x31 build/sky/obj/ringbuf.o
 .text          0x0000000000000000        0x0 build/sky/obj/ringbufindex.o
 .data          0x0000000000000000        0x0 build/sky/obj/ringbufindex.o
 .bss           0x0000000000000000        0x0 build/sky/obj/ringbufindex.o
 .text.ringbufindex_init
                0x0000000000000000       0x10 build/sky/obj/ringbufindex.o
 .text.ringbufindex_put
                0x0000000000000000       0x28 build/sky/obj/ringbufindex.o
 .text.ringbufindex_peek_put
                0x0000000000000000       0x1c build/sky/obj/ringbufindex.o
 .text.ringbufindex_get
                0x0000000000000000       0x2c build/sky/obj/ringbufindex.o
 .text.ringbufindex_peek_get
                0x0000000000000000       0x16 build/sky/obj/ringbufindex.o
 .text.ringbufindex_size
                0x0000000000000000        0x6 build/sky/obj/ringbufindex.o
 .text.ringbufindex_elements
                0x0000000000000000       0x10 build/sky/obj/ringbufindex.o
 .text.ringbufindex_full
                0x0000000000000000       0x1a build/sky/obj/ringbufindex.o
 .text.ringbufindex_empty
                0x0000000000000000       0x10 build/sky/obj/ringbufindex.o
 .comment       0x0000000000000000       0x31 build/sky/obj/ringbufindex.o
 .text          0x0000000000000000        0x0 build/sky/obj/rpl-border-router.o
 .data          0x0000000000000000        0x0 build/sky/obj/rpl-border-router.o
 .bss           0x0000000000000000        0x0 build/sky/obj/rpl-border-router.o
 .text          0x0000000000000000        0x0 build/sky/obj/rpl-dag-root.o
 .data          0x0000000000000000        0x0 build/sky/obj/rpl-dag-root.o
 .text          0x0000000000000000        0x0 build/sky/obj/rpl-dag.o
 .text.rpl_get_parent_rank
                0x0000000000000000       0x18 build/sky/obj/rpl-dag.o
 .text.rpl_get_parent_link_metric
                0x0000000000000000       0x2a build/sky/obj/rpl-dag.o
 .text.rpl_get_nbr
                0x0000000000000000       0x12 build/sky/obj/rpl-dag.o
 .text.rpl_print_neighbor_list
                0x0000000000000000       0x46 build/sky/obj/rpl-dag.o
 .text.rpl_set_default_instance
                0x0000000000000000        0x6 build/sky/obj/rpl-dag.o
 .text.rpl_free_instance
                0x0000000000000000       0x70 build/sky/obj/rpl-dag.o
 .text          0x0000000000000000        0x0 build/sky/obj/rpl-ext-header.o
 .data          0x0000000000000000        0x0 build/sky/obj/rpl-ext-header.o
 .bss           0x0000000000000000        0x0 build/sky/obj/rpl-ext-header.o
 .text          0x0000000000000000        0x0 build/sky/obj/rpl-icmp6.o
 .bss           0x0000000000000000        0x0 build/sky/obj/rpl-icmp6.o
 .text.dao_ack_output
                0x0000000000000000        0x2 build/sky/obj/rpl-icmp6.o
 .text          0x0000000000000000        0x0 build/sky/obj/rpl-mrhof.o
 .bss           0x0000000000000000        0x0 build/sky/obj/rpl-mrhof.o
 .text          0x0000000000000000        0x0 build/sky/obj/rpl-nbr-policy.o
 .data          0x0000000000000000        0x0 build/sky/obj/rpl-nbr-policy.o
 .bss           0x0000000000000000        0x0 build/sky/obj/rpl-nbr-policy.o
 .text          0x0000000000000000        0x0 build/sky/obj/rpl-of0.o
 .data          0x0000000000000000       0x12 build/sky/obj/rpl-of0.o
 .bss           0x0000000000000000        0x0 build/sky/obj/rpl-of0.o
 .text.reset    0x0000000000000000        0x2 build/sky/obj/rpl-of0.o
 .text.update_metric_container
                0x0000000000000000        0x6 build/sky/obj/rpl-of0.o
 .text.parent_link_metric
                0x0000000000000000       0x12 build/sky/obj/rpl-of0.o
 .text.parent_rank_increase
                0x0000000000000000       0x4c build/sky/obj/rpl-of0.o
 .text.best_dag
                0x0000000000000000       0x2e build/sky/obj/rpl-of0.o
 .text.parent_is_acceptable
                0x0000000000000000       0x42 build/sky/obj/rpl-of0.o
 .text.parent_has_usable_link
                0x0000000000000000        0x6 build/sky/obj/rpl-of0.o
 .text.rank_via_parent
                0x0000000000000000       0x3e build/sky/obj/rpl-of0.o
 .text.parent_path_cost
                0x0000000000000000       0x3e build/sky/obj/rpl-of0.o
 .text.best_parent
                0x0000000000000000       0x82 build/sky/obj/rpl-of0.o
 .comment       0x0000000000000000       0x31 build/sky/obj/rpl-of0.o
 .text          0x0000000000000000        0x0 build/sky/obj/rpl-timers.o
 .data          0x0000000000000000        0x0 build/sky/obj/rpl-timers.o
 .text.rpl_schedule_dao_immediately
                0x0000000000000000        0xa build/sky/obj/rpl-timers.o
 .text.rpl_cancel_dao
                0x0000000000000000       0x1a build/sky/obj/rpl-timers.o
 .text.get_probing_delay
                0x0000000000000000       0x1c build/sky/obj/rpl-timers.o
 .text          0x0000000000000000        0x0 build/sky/obj/rpl.o
 .data          0x0000000000000000        0x0 build/sky/obj/rpl.o
 .text.rpl_set_mode
                0x0000000000000000       0x52 build/sky/obj/rpl.o
 .text          0x0000000000000000        0x0 build/sky/obj/rpl_node.o
 .text          0x0000000000000000        0x0 build/sky/obj/rtimer-arch.o
 .data          0x0000000000000000        0x0 build/sky/obj/rtimer-arch.o
 .bss           0x0000000000000000        0x0 build/sky/obj/rtimer-arch.o
 .text          0x0000000000000000        0x0 build/sky/obj/rtimer.o
 .data          0x0000000000000000        0x0 build/sky/obj/rtimer.o
 .text.rtimer_set
                0x0000000000000000       0x24 build/sky/obj/rtimer.o
 .text          0x0000000000000000        0x0 build/sky/obj/sensors.o
 .text.sensors_first
                0x0000000000000000        0x6 build/sky/obj/sensors.o
 .text.sensors_next
                0x0000000000000000       0x24 build/sky/obj/sensors.o
 .text.sensors_find
                0x0000000000000000       0x50 build/sky/obj/sensors.o
 .text          0x0000000000000000        0x0 build/sky/obj/serial-line.o
 .data          0x0000000000000000        0xa build/sky/obj/serial-line.o
 .bss           0x0000000000000000      0x10a build/sky/obj/serial-line.o
 .text.process_thread_serial_line_process
                0x0000000000000000       0xa4 build/sky/obj/serial-line.o
 .text.serial_line_input_byte
                0x0000000000000000       0x42 build/sky/obj/serial-line.o
 .text.serial_line_init
                0x0000000000000000       0x1c build/sky/obj/serial-line.o
 .rodata        0x0000000000000000        0xe build/sky/obj/serial-line.o
 .comment       0x0000000000000000       0x31 build/sky/obj/serial-line.o
 COMMON         0x0000000000000000        0x1 build/sky/obj/serial-line.o
 .text          0x0000000000000000        0x0 build/sky/obj/sht11-sensor.o
 .data          0x0000000000000000        0x1 build/sky/obj/sht11-sensor.o
 .bss           0x0000000000000000        0x0 build/sky/obj/sht11-sensor.o
 .text.status   0x0000000000000000       0x14 build/sky/obj/sht11-sensor.o
 .text.value    0x0000000000000000       0x30 build/sky/obj/sht11-sensor.o
 .text.configure
                0x0000000000000000       0x3e build/sky/obj/sht11-sensor.o
 .rodata        0x0000000000000000        0xe build/sky/obj/sht11-sensor.o
 .comment       0x0000000000000000       0x31 build/sky/obj/sht11-sensor.o
 .text          0x0000000000000000        0x0 build/sky/obj/sht11.o
 .data          0x0000000000000000        0x0 build/sky/obj/sht11.o
 .bss           0x0000000000000000        0x0 build/sky/obj/sht11.o
 .text.crc8_add
                0x0000000000000000       0x1c build/sky/obj/sht11.o
 .text.sstart   0x0000000000000000       0x3e build/sky/obj/sht11.o
 .text.swrite   0x0000000000000000       0x62 build/sky/obj/sht11.o
 .text.sread    0x0000000000000000       0x4c build/sky/obj/sht11.o
 .text.sreset   0x0000000000000000       0x2a build/sky/obj/sht11.o
 .text.scmd.part.0
                0x0000000000000000       0xb4 build/sky/obj/sht11.o
 .text.sht11_init
                0x0000000000000000       0x1a build/sky/obj/sht11.o
 .text.sht11_off
                0x0000000000000000       0x14 build/sky/obj/sht11.o
 .text.sht11_temp
                0x0000000000000000        0xa build/sky/obj/sht11.o
 .text.sht11_humidity
                0x0000000000000000        0xa build/sky/obj/sht11.o
 .text.sht11_sreg
                0x0000000000000000       0x80 build/sky/obj/sht11.o
 .comment       0x0000000000000000       0x31 build/sky/obj/sht11.o
 .text          0x0000000000000000        0x0 build/sky/obj/sicslowpan.o
 .data          0x0000000000000000        0x0 build/sky/obj/sicslowpan.o
 .text.netstack_sniffer_add
                0x0000000000000000        0x6 build/sky/obj/sicslowpan.o
 .text.netstack_sniffer_remove
                0x0000000000000000        0x6 build/sky/obj/sicslowpan.o
 .text          0x0000000000000000        0x0 build/sky/obj/simple-udp.o
 .data          0x0000000000000000        0xa build/sky/obj/simple-udp.o
 .bss           0x0000000000000000       0xf1 build/sky/obj/simple-udp.o
 .text.process_thread_simple_udp_process
                0x0000000000000000       0xb8 build/sky/obj/simple-udp.o
 .text.simple_udp_send
                0x0000000000000000       0x2e build/sky/obj/simple-udp.o
 .text.simple_udp_sendto
                0x0000000000000000       0x2c build/sky/obj/simple-udp.o
 .text.simple_udp_sendto_port
                0x0000000000000000       0x2a build/sky/obj/simple-udp.o
 .text.simple_udp_register
                0x0000000000000000       0x9a build/sky/obj/simple-udp.o
 .rodata        0x0000000000000000       0x13 build/sky/obj/simple-udp.o
 .comment       0x0000000000000000       0x31 build/sky/obj/simple-udp.o
 .text          0x0000000000000000        0x0 build/sky/obj/sky-sensors.o
 .data          0x0000000000000000        0x0 build/sky/obj/sky-sensors.o
 .bss           0x0000000000000000        0x4 build/sky/obj/sky-sensors.o
 .text.sky_sensors_status
                0x0000000000000000       0x3c build/sky/obj/sky-sensors.o
 .text.sky_sensors_configure
                0x0000000000000000       0xfe build/sky/obj/sky-sensors.o
 .comment       0x0000000000000000       0x31 build/sky/obj/sky-sensors.o
 .text          0x0000000000000000        0x0 build/sky/obj/slip-bridge.o
 .data          0x0000000000000000        0x0 build/sky/obj/slip-bridge.o
 .text          0x0000000000000000        0x0 build/sky/obj/slip.o
 .text          0x0000000000000000        0x0 build/sky/obj/slip_uart1.o
 .data          0x0000000000000000        0x0 build/sky/obj/slip_uart1.o
 .bss           0x0000000000000000        0x0 build/sky/obj/slip_uart1.o
 .text          0x0000000000000000        0x0 build/sky/obj/spi-legacy.o
 .data          0x0000000000000000        0x0 build/sky/obj/spi-legacy.o
 .bss           0x0000000000000000        0x1 build/sky/obj/spi-legacy.o
 .text          0x0000000000000000        0x0 build/sky/obj/spi.o
 .data          0x0000000000000000        0x0 build/sky/obj/spi.o
 .bss           0x0000000000000000        0x0 build/sky/obj/spi.o
 .text.spi_acquire
                0x0000000000000000        0x4 build/sky/obj/spi.o
 .text.spi_release
                0x0000000000000000        0x4 build/sky/obj/spi.o
 .text.spi_select
                0x0000000000000000       0x22 build/sky/obj/spi.o
 .text.spi_deselect
                0x0000000000000000       0x10 build/sky/obj/spi.o
 .text.spi_has_bus
                0x0000000000000000        0x4 build/sky/obj/spi.o
 .text.spi_write_byte
                0x0000000000000000        0x8 build/sky/obj/spi.o
 .text.spi_write
                0x0000000000000000        0x4 build/sky/obj/spi.o
 .text.spi_read_byte
                0x0000000000000000        0x4 build/sky/obj/spi.o
 .text.spi_read
                0x0000000000000000        0x4 build/sky/obj/spi.o
 .text.spi_read_skip
                0x0000000000000000        0x4 build/sky/obj/spi.o
 .text.spi_transfer
                0x0000000000000000        0x4 build/sky/obj/spi.o
 .text.spi_read_register
                0x0000000000000000        0x4 build/sky/obj/spi.o
 .text.spi_strobe
                0x0000000000000000        0x8 build/sky/obj/spi.o
 .comment       0x0000000000000000       0x31 build/sky/obj/spi.o
 .text          0x0000000000000000        0x0 build/sky/obj/stack-check.o
 .text.stack_check_get_reserved_size
                0x0000000000000000       0x14 build/sky/obj/stack-check.o
 .text          0x0000000000000000        0x0 build/sky/obj/stimer.o
 .data          0x0000000000000000        0x0 build/sky/obj/stimer.o
 .bss           0x0000000000000000        0x0 build/sky/obj/stimer.o
 .text.stimer_restart
                0x0000000000000000       0x14 build/sky/obj/stimer.o
 .text.stimer_reset
                0x0000000000000000       0x1c build/sky/obj/stimer.o
 .text.stimer_remaining
                0x0000000000000000       0x28 build/sky/obj/stimer.o
 .text.stimer_elapsed
                0x0000000000000000       0x12 build/sky/obj/stimer.o
 .text          0x0000000000000000        0x0 build/sky/obj/tcp-socket.o
 .data          0x0000000000000000        0x0 build/sky/obj/tcp-socket.o
 .bss           0x0000000000000000        0x0 build/sky/obj/tcp-socket.o
 .comment       0x0000000000000000       0x31 build/sky/obj/tcp-socket.o
 .text          0x0000000000000000        0x0 build/sky/obj/tcpip.o
 .text.udp_attach
                0x0000000000000000        0xc build/sky/obj/tcpip.o
 .text.udp_new  0x0000000000000000       0x1a build/sky/obj/tcpip.o
 .text.udp_broadcast_new
                0x0000000000000000       0x46 build/sky/obj/tcpip.o
 .text.tcpip_poll_udp
                0x0000000000000000        0xe build/sky/obj/tcpip.o
 .text          0x0000000000000000        0x0 build/sky/obj/timer.o
 .data          0x0000000000000000        0x0 build/sky/obj/timer.o
 .bss           0x0000000000000000        0x0 build/sky/obj/timer.o
 .text.timer_restart
                0x0000000000000000       0x14 build/sky/obj/timer.o
 .text.timer_remaining
                0x0000000000000000       0x28 build/sky/obj/timer.o
 .text          0x0000000000000000        0x0 build/sky/obj/trickle-timer.o
 .data          0x0000000000000000        0x0 build/sky/obj/trickle-timer.o
 .bss           0x0000000000000000        0x6 build/sky/obj/trickle-timer.o
 .text.fire     0x0000000000000000       0x84 build/sky/obj/trickle-timer.o
 .text.new_interval
                0x0000000000000000       0x84 build/sky/obj/trickle-timer.o
 .text.double_interval
                0x0000000000000000      0x106 build/sky/obj/trickle-timer.o
 .text.trickle_timer_consistency
                0x0000000000000000       0x1c build/sky/obj/trickle-timer.o
 .text.trickle_timer_inconsistency
                0x0000000000000000       0x30 build/sky/obj/trickle-timer.o
 .text.trickle_timer_config
                0x0000000000000000      0x116 build/sky/obj/trickle-timer.o
 .text.trickle_timer_set
                0x0000000000000000       0x7e build/sky/obj/trickle-timer.o
 .comment       0x0000000000000000       0x31 build/sky/obj/trickle-timer.o
 .text          0x0000000000000000        0x0 build/sky/obj/uart1-putchar.o
 .data          0x0000000000000000        0x0 build/sky/obj/uart1-putchar.o
 .text          0x0000000000000000        0x0 build/sky/obj/uart1.o
 .data          0x0000000000000000        0x0 build/sky/obj/uart1.o
 .text          0x0000000000000000        0x0 build/sky/obj/udp-socket.o
 .data          0x0000000000000000        0xa build/sky/obj/udp-socket.o
 .bss           0x0000000000000000       0xf1 build/sky/obj/udp-socket.o
 .text.process_thread_udp_socket_process
                0x0000000000000000       0xb2 build/sky/obj/udp-socket.o
 .text.udp_socket_register
                0x0000000000000000       0x5e build/sky/obj/udp-socket.o
 .text.udp_socket_close
                0x0000000000000000       0x18 build/sky/obj/udp-socket.o
 .text.udp_socket_bind
                0x0000000000000000       0x22 build/sky/obj/udp-socket.o
 .text.udp_socket_connect
                0x0000000000000000       0x3e build/sky/obj/udp-socket.o
 .text.udp_socket_send
                0x0000000000000000       0x1e build/sky/obj/udp-socket.o
 .text.udp_socket_sendto
                0x0000000000000000       0x38 build/sky/obj/udp-socket.o
 .rodata        0x0000000000000000       0x13 build/sky/obj/udp-socket.o
 .comment       0x0000000000000000       0x31 build/sky/obj/udp-socket.o
 .text          0x0000000000000000        0x0 build/sky/obj/uip-ds6-nbr.o
 .text.uip_ds6_nbr_get_ipaddr
                0x0000000000000000        0x2 build/sky/obj/uip-ds6-nbr.o
 .text.uip_ds6_nbr_num
                0x0000000000000000       0x24 build/sky/obj/uip-ds6-nbr.o
 .text          0x0000000000000000        0x0 build/sky/obj/uip-ds6-route.o
 .text.uip_ds6_notification_add
                0x0000000000000000       0x18 build/sky/obj/uip-ds6-route.o
 .text.uip_ds6_notification_rm
                0x0000000000000000        0xc build/sky/obj/uip-ds6-route.o
 .text.uip_ds6_route_num_routes
                0x0000000000000000        0x6 build/sky/obj/uip-ds6-route.o
 .text.uip_ds6_route_rm_by_nexthop
                0x0000000000000000       0x14 build/sky/obj/uip-ds6-route.o
 .text.uip_ds6_defrt_head
                0x0000000000000000        0xa build/sky/obj/uip-ds6-route.o
 .text          0x0000000000000000        0x0 build/sky/obj/uip-ds6.o
 .data          0x0000000000000000        0x0 build/sky/obj/uip-ds6.o
 .text.uip_ds6_set_default_prefix
                0x0000000000000000       0x10 build/sky/obj/uip-ds6.o
 .text.uip_ds6_prefix_rm
                0x0000000000000000        0xa build/sky/obj/uip-ds6.o
 .text.uip_ds6_prefix_lookup
                0x0000000000000000       0x28 build/sky/obj/uip-ds6.o
 .text.uip_ds6_get_global
                0x0000000000000000       0x3e build/sky/obj/uip-ds6.o
 .text.uip_ds6_aaddr_add
                0x0000000000000000       0x4a build/sky/obj/uip-ds6.o
 .text.uip_ds6_aaddr_rm
                0x0000000000000000        0xa build/sky/obj/uip-ds6.o
 .text.uip_ds6_aaddr_lookup
                0x0000000000000000       0x28 build/sky/obj/uip-ds6.o
 .text          0x0000000000000000        0x0 build/sky/obj/uip-icmp6.o
 .text.uip_icmp6_echo_reply_callback_add
                0x0000000000000000       0x18 build/sky/obj/uip-icmp6.o
 .text.uip_icmp6_echo_reply_callback_rm
                0x0000000000000000        0xc build/sky/obj/uip-icmp6.o
 .text          0x0000000000000000        0x0 build/sky/obj/uip-ipchksum.o
 .data          0x0000000000000000        0x0 build/sky/obj/uip-ipchksum.o
 .bss           0x0000000000000000        0x0 build/sky/obj/uip-ipchksum.o
 .text.uip_ipchksum
                0x0000000000000000       0x32 build/sky/obj/uip-ipchksum.o
 .comment       0x0000000000000000       0x31 build/sky/obj/uip-ipchksum.o
 .text          0x0000000000000000        0x0 build/sky/obj/uip-nameserver.o
 .data          0x0000000000000000        0x0 build/sky/obj/uip-nameserver.o
 .bss           0x0000000000000000       0x14 build/sky/obj/uip-nameserver.o
 .text.uip_nameserver_update
                0x0000000000000000       0x24 build/sky/obj/uip-nameserver.o
 .text.uip_nameserver_get
                0x0000000000000000        0xe build/sky/obj/uip-nameserver.o
 .text.uip_nameserver_next_expiration
                0x0000000000000000        0xa build/sky/obj/uip-nameserver.o
 .text.uip_nameserver_count
                0x0000000000000000       0x3c build/sky/obj/uip-nameserver.o
 .comment       0x0000000000000000       0x31 build/sky/obj/uip-nameserver.o
 .text          0x0000000000000000        0x0 build/sky/obj/uip-nd6.o
 .text          0x0000000000000000        0x0 build/sky/obj/uip-packetqueue.o
 .data          0x0000000000000000        0x8 build/sky/obj/uip-packetqueue.o
 .bss           0x0000000000000000      0x216 build/sky/obj/uip-packetqueue.o
 .text.packet_timedout
                0x0000000000000000       0x16 build/sky/obj/uip-packetqueue.o
 .text.uip_packetqueue_new
                0x0000000000000000        0x6 build/sky/obj/uip-packetqueue.o
 .text.uip_packetqueue_alloc
                0x0000000000000000       0x44 build/sky/obj/uip-packetqueue.o
 .text.uip_packetqueue_free
                0x0000000000000000       0x24 build/sky/obj/uip-packetqueue.o
 .text.uip_packetqueue_buf
                0x0000000000000000        0xe build/sky/obj/uip-packetqueue.o
 .text.uip_packetqueue_buflen
                0x0000000000000000       0x10 build/sky/obj/uip-packetqueue.o
 .text.uip_packetqueue_set_buflen
                0x0000000000000000        0xc build/sky/obj/uip-packetqueue.o
 .comment       0x0000000000000000       0x31 build/sky/obj/uip-packetqueue.o
 .text          0x0000000000000000        0x0 build/sky/obj/uip-sr.o
 .data          0x0000000000000000        0x8 build/sky/obj/uip-sr.o
 .bss           0x0000000000000000        0x4 build/sky/obj/uip-sr.o
 .text.node_matches_address.part.0
                0x0000000000000000       0x2e build/sky/obj/uip-sr.o
 .text.uip_sr_num_nodes
                0x0000000000000000        0x6 build/sky/obj/uip-sr.o
 .text.uip_sr_get_node
                0x0000000000000000       0x44 build/sky/obj/uip-sr.o
 .text.uip_sr_is_addr_reachable
                0x0000000000000000       0x44 build/sky/obj/uip-sr.o
 .text.uip_sr_expire_parent
                0x0000000000000000       0x50 build/sky/obj/uip-sr.o
 .text.uip_sr_update_node
                0x0000000000000000       0xbc build/sky/obj/uip-sr.o
 .text.uip_sr_init
                0x0000000000000000       0x16 build/sky/obj/uip-sr.o
 .text.uip_sr_node_head
                0x0000000000000000        0xa build/sky/obj/uip-sr.o
 .text.uip_sr_node_next
                0x0000000000000000        0x6 build/sky/obj/uip-sr.o
 .text.uip_sr_periodic
                0x0000000000000000       0x9e build/sky/obj/uip-sr.o
 .text.uip_sr_free_all
                0x0000000000000000       0x3c build/sky/obj/uip-sr.o
 .rodata        0x0000000000000000       0x44 build/sky/obj/uip-sr.o
 .text.uip_sr_link_snprint
                0x0000000000000000       0xd6 build/sky/obj/uip-sr.o
 .comment       0x0000000000000000       0x31 build/sky/obj/uip-sr.o
 .text          0x0000000000000000        0x0 build/sky/obj/uip-udp-packet.o
 .data          0x0000000000000000        0x0 build/sky/obj/uip-udp-packet.o
 .bss           0x0000000000000000        0x0 build/sky/obj/uip-udp-packet.o
 .text.uip_udp_packet_send
                0x0000000000000000       0x2a build/sky/obj/uip-udp-packet.o
 .text.uip_udp_packet_sendto
                0x0000000000000000       0x66 build/sky/obj/uip-udp-packet.o
 .comment       0x0000000000000000       0x31 build/sky/obj/uip-udp-packet.o
 .text          0x0000000000000000        0x0 build/sky/obj/uip6.o
 .data          0x0000000000000000        0x0 build/sky/obj/uip6.o
 .text.uip_chksum
                0x0000000000000000       0x18 build/sky/obj/uip6.o
 .text.uip_udp_new
                0x0000000000000000       0xac build/sky/obj/uip6.o
 .text.uip_htons
                0x0000000000000000        0xc build/sky/obj/uip6.o
 .text.uip_send
                0x0000000000000000       0x62 build/sky/obj/uip6.o
 .text          0x0000000000000000        0x0 build/sky/obj/uipbuf.o
 .data          0x0000000000000000        0x0 build/sky/obj/uipbuf.o
 .text.uipbuf_search_header
                0x0000000000000000       0x4e build/sky/obj/uipbuf.o
 .text.uipbuf_set_default_attr
                0x0000000000000000       0x14 build/sky/obj/uipbuf.o
 .text.uipbuf_set_attr_flag
                0x0000000000000000        0x6 build/sky/obj/uipbuf.o
 .text.uipbuf_clr_attr_flag
                0x0000000000000000        0x6 build/sky/obj/uipbuf.o
 .text.uipbuf_is_attr_flag
                0x0000000000000000       0x12 build/sky/obj/uipbuf.o
 .text          0x0000000000000000        0x0 build/sky/obj/uiplib.o
 .data          0x0000000000000000        0x0 build/sky/obj/uiplib.o
 .bss           0x0000000000000000        0x0 build/sky/obj/uiplib.o
 .text.uiplib_ip6addrconv
                0x0000000000000000      0x10c build/sky/obj/uiplib.o
 .text.uiplib_ip4addrconv
                0x0000000000000000       0x8a build/sky/obj/uiplib.o
 .text.uiplib_ipaddr_print
                0x0000000000000000       0x32 build/sky/obj/uiplib.o
 .text          0x0000000000000000        0x0 build/sky/obj/watchdog.o
 .data          0x0000000000000000        0x0 build/sky/obj/watchdog.o
 .text.watchdog_reboot
                0x0000000000000000        0x6 build/sky/obj/watchdog.o
 .text          0x0000000000000000        0x0 build/sky/obj/xmem.o
 .data          0x0000000000000000        0x0 build/sky/obj/xmem.o
 .bss           0x0000000000000000        0x0 build/sky/obj/xmem.o
 .text.write_enable
                0x0000000000000000       0x28 build/sky/obj/xmem.o
 .text.wait_ready
                0x0000000000000000       0x4a build/sky/obj/xmem.o
 .text.xmem_pread
                0x0000000000000000       0xa4 build/sky/obj/xmem.o
 .text.xmem_pwrite
                0x0000000000000000      0x102 build/sky/obj/xmem.o
 .text.xmem_erase
                0x0000000000000000       0xba build/sky/obj/xmem.o
 .text          0x0000000000000000        0x0 /home/ape/libs/mspgcc-4.7.3/bin/../lib/gcc/msp430/4.7.3/mmpy-16/libgcc.a(_mulsi3.o)
 .data          0x0000000000000000        0x0 /home/ape/libs/mspgcc-4.7.3/bin/../lib/gcc/msp430/4.7.3/mmpy-16/libgcc.a(_mulsi3.o)
 .bss           0x0000000000000000        0x0 /home/ape/libs/mspgcc-4.7.3/bin/../lib/gcc/msp430/4.7.3/mmpy-16/libgcc.a(_mulsi3.o)
 .text          0x0000000000000000        0x0 /home/ape/libs/mspgcc-4.7.3/bin/../lib/gcc/msp430/4.7.3/mmpy-16/libgcc.a(_udivmod16.o)
 .data          0x0000000000000000        0x0 /home/ape/libs/mspgcc-4.7.3/bin/../lib/gcc/msp430/4.7.3/mmpy-16/libgcc.a(_udivmod16.o)
 .bss           0x0000000000000000        0x0 /home/ape/libs/mspgcc-4.7.3/bin/../lib/gcc/msp430/4.7.3/mmpy-16/libgcc.a(_udivmod16.o)
 .text          0x0000000000000000        0x0 /home/ape/libs/mspgcc-4.7.3/bin/../lib/gcc/msp430/4.7.3/mmpy-16/libgcc.a(_divmod16.o)
 .data          0x0000000000000000        0x0 /home/ape/libs/mspgcc-4.7.3/bin/../lib/gcc/msp430/4.7.3/mmpy-16/libgcc.a(_divmod16.o)
 .bss           0x0000000000000000        0x0 /home/ape/libs/mspgcc-4.7.3/bin/../lib/gcc/msp430/4.7.3/mmpy-16/libgcc.a(_divmod16.o)
 .text          0x0000000000000000        0x0 /home/ape/libs/mspgcc-4.7.3/bin/../lib/gcc/msp430/4.7.3/mmpy-16/libgcc.a(_udivmod32.o)
 .data          0x0000000000000000        0x0 /home/ape/libs/mspgcc-4.7.3/bin/../lib/gcc/msp430/4.7.3/mmpy-16/libgcc.a(_udivmod32.o)
 .bss           0x0000000000000000        0x0 /home/ape/libs/mspgcc-4.7.3/bin/../lib/gcc/msp430/4.7.3/mmpy-16/libgcc.a(_udivmod32.o)
 .text          0x0000000000000000        0x0 /home/ape/libs/mspgcc-4.7.3/bin/../lib/gcc/msp430/4.7.3/mmpy-16/libgcc.a(_divmod32.o)
 .data          0x0000000000000000        0x0 /home/ape/libs/mspgcc-4.7.3/bin/../lib/gcc/msp430/4.7.3/mmpy-16/libgcc.a(_divmod32.o)
 .bss           0x0000000000000000        0x0 /home/ape/libs/mspgcc-4.7.3/bin/../lib/gcc/msp430/4.7.3/mmpy-16/libgcc.a(_divmod32.o)
 .text          0x0000000000000000        0x0 /home/ape/libs/mspgcc-4.7.3/bin/../lib/gcc/msp430/4.7.3/../../../../msp430/lib/mmpy-16/libc.a(printf.o)
 .data          0x0000000000000000        0x0 /home/ape/libs/mspgcc-4.7.3/bin/../lib/gcc/msp430/4.7.3/../../../../msp430/lib/mmpy-16/libc.a(printf.o)
 .bss           0x0000000000000000        0x0 /home/ape/libs/mspgcc-4.7.3/bin/../lib/gcc/msp430/4.7.3/../../../../msp430/lib/mmpy-16/libc.a(printf.o)
 .text.vprintf  0x0000000000000000        0xe /home/ape/libs/mspgcc-4.7.3/bin/../lib/gcc/msp430/4.7.3/../../../../msp430/lib/mmpy-16/libc.a(printf.o)
 .text          0x0000000000000000        0x0 /home/ape/libs/mspgcc-4.7.3/bin/../lib/gcc/msp430/4.7.3/../../../../msp430/lib/mmpy-16/libc.a(sprintf.o)
 .data          0x0000000000000000        0x0 /home/ape/libs/mspgcc-4.7.3/bin/../lib/gcc/msp430/4.7.3/../../../../msp430/lib/mmpy-16/libc.a(sprintf.o)
 .bss           0x0000000000000000        0x0 /home/ape/libs/mspgcc-4.7.3/bin/../lib/gcc/msp430/4.7.3/../../../../msp430/lib/mmpy-16/libc.a(sprintf.o)
 .text.sprintf  0x0000000000000000       0x1c /home/ape/libs/mspgcc-4.7.3/bin/../lib/gcc/msp430/4.7.3/../../../../msp430/lib/mmpy-16/libc.a(sprintf.o)
 .text.vsprintf
                0x0000000000000000       0x16 /home/ape/libs/mspgcc-4.7.3/bin/../lib/gcc/msp430/4.7.3/../../../../msp430/lib/mmpy-16/libc.a(sprintf.o)
 .text.vsnprintf
                0x0000000000000000       0x12 /home/ape/libs/mspgcc-4.7.3/bin/../lib/gcc/msp430/4.7.3/../../../../msp430/lib/mmpy-16/libc.a(sprintf.o)
 .text          0x0000000000000000        0x0 /home/ape/libs/mspgcc-4.7.3/bin/../lib/gcc/msp430/4.7.3/../../../../msp430/lib/mmpy-16/libc.a(vuprintf.o)
 .data          0x0000000000000000        0x0 /home/ape/libs/mspgcc-4.7.3/bin/../lib/gcc/msp430/4.7.3/../../../../msp430/lib/mmpy-16/libc.a(vuprintf.o)
 .bss           0x0000000000000000        0x0 /home/ape/libs/mspgcc-4.7.3/bin/../lib/gcc/msp430/4.7.3/../../../../msp430/lib/mmpy-16/libc.a(vuprintf.o)
 .text          0x0000000000000000        0x0 /home/ape/libs/mspgcc-4.7.3/bin/../lib/gcc/msp430/4.7.3/../../../../msp430/lib/mmpy-16/libc.a(puts.o)
 .data          0x0000000000000000        0x0 /home/ape/libs/mspgcc-4.7.3/bin/../lib/gcc/msp430/4.7.3/../../../../msp430/lib/mmpy-16/libc.a(puts.o)
 .bss           0x0000000000000000        0x0 /home/ape/libs/mspgcc-4.7.3/bin/../lib/gcc/msp430/4.7.3/../../../../msp430/lib/mmpy-16/libc.a(puts.o)
 .text          0x0000000000000000        0x0 /home/ape/libs/mspgcc-4.7.3/bin/../lib/gcc/msp430/4.7.3/../../../../msp430/lib/mmpy-16/libc.a(rand.o)
 .data          0x0000000000000000        0x0 /home/ape/libs/mspgcc-4.7.3/bin/../lib/gcc/msp430/4.7.3/../../../../msp430/lib/mmpy-16/libc.a(rand.o)
 .bss           0x0000000000000000        0x0 /home/ape/libs/mspgcc-4.7.3/bin/../lib/gcc/msp430/4.7.3/../../../../msp430/lib/mmpy-16/libc.a(rand.o)
 .text.rand_r   0x0000000000000000       0x24 /home/ape/libs/mspgcc-4.7.3/bin/../lib/gcc/msp430/4.7.3/../../../../msp430/lib/mmpy-16/libc.a(rand.o)
 .text          0x0000000000000000        0x0 /home/ape/libs/mspgcc-4.7.3/bin/../lib/gcc/msp430/4.7.3/../../../../msp430/lib/mmpy-16/libc.a(strcmp.o)
 .data          0x0000000000000000        0x0 /home/ape/libs/mspgcc-4.7.3/bin/../lib/gcc/msp430/4.7.3/../../../../msp430/lib/mmpy-16/libc.a(strcmp.o)
 .bss           0x0000000000000000        0x0 /home/ape/libs/mspgcc-4.7.3/bin/../lib/gcc/msp430/4.7.3/../../../../msp430/lib/mmpy-16/libc.a(strcmp.o)
 .text.strcmp   0x0000000000000000       0x1e /home/ape/libs/mspgcc-4.7.3/bin/../lib/gcc/msp430/4.7.3/../../../../msp430/lib/mmpy-16/libc.a(strcmp.o)
 .debug_frame   0x0000000000000000       0x1e /home/ape/libs/mspgcc-4.7.3/bin/../lib/gcc/msp430/4.7.3/../../../../msp430/lib/mmpy-16/libc.a(strcmp.o)
 .debug_info    0x0000000000000000       0xa9 /home/ape/libs/mspgcc-4.7.3/bin/../lib/gcc/msp430/4.7.3/../../../../msp430/lib/mmpy-16/libc.a(strcmp.o)
 .debug_abbrev  0x0000000000000000       0x65 /home/ape/libs/mspgcc-4.7.3/bin/../lib/gcc/msp430/4.7.3/../../../../msp430/lib/mmpy-16/libc.a(strcmp.o)
 .debug_loc     0x0000000000000000       0x32 /home/ape/libs/mspgcc-4.7.3/bin/../lib/gcc/msp430/4.7.3/../../../../msp430/lib/mmpy-16/libc.a(strcmp.o)
 .debug_aranges
                0x0000000000000000       0x14 /home/ape/libs/mspgcc-4.7.3/bin/../lib/gcc/msp430/4.7.3/../../../../msp430/lib/mmpy-16/libc.a(strcmp.o)
 .debug_ranges  0x0000000000000000        0x8 /home/ape/libs/mspgcc-4.7.3/bin/../lib/gcc/msp430/4.7.3/../../../../msp430/lib/mmpy-16/libc.a(strcmp.o)
 .debug_line    0x0000000000000000       0x49 /home/ape/libs/mspgcc-4.7.3/bin/../lib/gcc/msp430/4.7.3/../../../../msp430/lib/mmpy-16/libc.a(strcmp.o)
 .debug_str     0x0000000000000000       0xf9 /home/ape/libs/mspgcc-4.7.3/bin/../lib/gcc/msp430/4.7.3/../../../../msp430/lib/mmpy-16/libc.a(strcmp.o)
 .comment       0x0000000000000000       0x31 /home/ape/libs/mspgcc-4.7.3/bin/../lib/gcc/msp430/4.7.3/../../../../msp430/lib/mmpy-16/libc.a(strcmp.o)
 .text          0x0000000000000000        0x0 /home/ape/libs/mspgcc-4.7.3/bin/../lib/gcc/msp430/4.7.3/../../../../msp430/lib/mmpy-16/libc.a(strncmp.o)
 .data          0x0000000000000000        0x0 /home/ape/libs/mspgcc-4.7.3/bin/../lib/gcc/msp430/4.7.3/../../../../msp430/lib/mmpy-16/libc.a(strncmp.o)
 .bss           0x0000000000000000        0x0 /home/ape/libs/mspgcc-4.7.3/bin/../lib/gcc/msp430/4.7.3/../../../../msp430/lib/mmpy-16/libc.a(strncmp.o)
 .text.strncmp  0x0000000000000000       0x2a /home/ape/libs/mspgcc-4.7.3/bin/../lib/gcc/msp430/4.7.3/../../../../msp430/lib/mmpy-16/libc.a(strncmp.o)
 .debug_frame   0x0000000000000000       0x24 /home/ape/libs/mspgcc-4.7.3/bin/../lib/gcc/msp430/4.7.3/../../../../msp430/lib/mmpy-16/libc.a(strncmp.o)
 .debug_info    0x0000000000000000       0xc2 /home/ape/libs/mspgcc-4.7.3/bin/../lib/gcc/msp430/4.7.3/../../../../msp430/lib/mmpy-16/libc.a(strncmp.o)
 .debug_abbrev  0x0000000000000000       0x72 /home/ape/libs/mspgcc-4.7.3/bin/../lib/gcc/msp430/4.7.3/../../../../msp430/lib/mmpy-16/libc.a(strncmp.o)
 .debug_loc     0x0000000000000000       0x4a /home/ape/libs/mspgcc-4.7.3/bin/../lib/gcc/msp430/4.7.3/../../../../msp430/lib/mmpy-16/libc.a(strncmp.o)
 .debug_aranges
                0x0000000000000000       0x14 /home/ape/libs/mspgcc-4.7.3/bin/../lib/gcc/msp430/4.7.3/../../../../msp430/lib/mmpy-16/libc.a(strncmp.o)
 .debug_ranges  0x0000000000000000        0x8 /home/ape/libs/mspgcc-4.7.3/bin/../lib/gcc/msp430/4.7.3/../../../../msp430/lib/mmpy-16/libc.a(strncmp.o)
 .debug_line    0x0000000000000000       0x91 /home/ape/libs/mspgcc-4.7.3/bin/../lib/gcc/msp430/4.7.3/../../../../msp430/lib/mmpy-16/libc.a(strncmp.o)
 .debug_str     0x0000000000000000      0x102 /home/ape/libs/mspgcc-4.7.3/bin/../lib/gcc/msp430/4.7.3/../../../../msp430/lib/mmpy-16/libc.a(strncmp.o)
 .comment       0x0000000000000000       0x31 /home/ape/libs/mspgcc-4.7.3/bin/../lib/gcc/msp430/4.7.3/../../../../msp430/lib/mmpy-16/libc.a(strncmp.o)
 .text          0x0000000000000000        0x0 /home/ape/libs/mspgcc-4.7.3/bin/../lib/gcc/msp430/4.7.3/../../../../msp430/lib/mmpy-16/libc.a(memcmp.o)
 .data          0x0000000000000000        0x0 /home/ape/libs/mspgcc-4.7.3/bin/../lib/gcc/msp430/4.7.3/../../../../msp430/lib/mmpy-16/libc.a(memcmp.o)
 .bss           0x0000000000000000        0x0 /home/ape/libs/mspgcc-4.7.3/bin/../lib/gcc/msp430/4.7.3/../../../../msp430/lib/mmpy-16/libc.a(memcmp.o)
 .text          0x0000000000000000        0x0 /home/ape/libs/mspgcc-4.7.3/bin/../lib/gcc/msp430/4.7.3/../../../../msp430/lib/mmpy-16/libc.a(strncpy.o)
 .data          0x0000000000000000        0x0 /home/ape/libs/mspgcc-4.7.3/bin/../lib/gcc/msp430/4.7.3/../../../../msp430/lib/mmpy-16/libc.a(strncpy.o)
 .bss           0x0000000000000000        0x0 /home/ape/libs/mspgcc-4.7.3/bin/../lib/gcc/msp430/4.7.3/../../../../msp430/lib/mmpy-16/libc.a(strncpy.o)
 .text.strncpy  0x0000000000000000       0x2a /home/ape/libs/mspgcc-4.7.3/bin/../lib/gcc/msp430/4.7.3/../../../../msp430/lib/mmpy-16/libc.a(strncpy.o)
 .debug_frame   0x0000000000000000       0x24 /home/ape/libs/mspgcc-4.7.3/bin/../lib/gcc/msp430/4.7.3/../../../../msp430/lib/mmpy-16/libc.a(strncpy.o)
 .debug_info    0x0000000000000000       0xe8 /home/ape/libs/mspgcc-4.7.3/bin/../lib/gcc/msp430/4.7.3/../../../../msp430/lib/mmpy-16/libc.a(strncpy.o)
 .debug_abbrev  0x0000000000000000       0x99 /home/ape/libs/mspgcc-4.7.3/bin/../lib/gcc/msp430/4.7.3/../../../../msp430/lib/mmpy-16/libc.a(strncpy.o)
 .debug_loc     0x0000000000000000       0x61 /home/ape/libs/mspgcc-4.7.3/bin/../lib/gcc/msp430/4.7.3/../../../../msp430/lib/mmpy-16/libc.a(strncpy.o)
 .debug_aranges
                0x0000000000000000       0x14 /home/ape/libs/mspgcc-4.7.3/bin/../lib/gcc/msp430/4.7.3/../../../../msp430/lib/mmpy-16/libc.a(strncpy.o)
 .debug_ranges  0x0000000000000000        0x8 /home/ape/libs/mspgcc-4.7.3/bin/../lib/gcc/msp430/4.7.3/../../../../msp430/lib/mmpy-16/libc.a(strncpy.o)
 .debug_line    0x0000000000000000       0x8d /home/ape/libs/mspgcc-4.7.3/bin/../lib/gcc/msp430/4.7.3/../../../../msp430/lib/mmpy-16/libc.a(strncpy.o)
 .debug_str     0x0000000000000000      0x102 /home/ape/libs/mspgcc-4.7.3/bin/../lib/gcc/msp430/4.7.3/../../../../msp430/lib/mmpy-16/libc.a(strncpy.o)
 .comment       0x0000000000000000       0x31 /home/ape/libs/mspgcc-4.7.3/bin/../lib/gcc/msp430/4.7.3/../../../../msp430/lib/mmpy-16/libc.a(strncpy.o)
 .text          0x0000000000000000        0x0 /home/ape/libs/mspgcc-4.7.3/bin/../lib/gcc/msp430/4.7.3/../../../../msp430/lib/mmpy-16/libc.a(memcpy.o)
 .data          0x0000000000000000        0x0 /home/ape/libs/mspgcc-4.7.3/bin/../lib/gcc/msp430/4.7.3/../../../../msp430/lib/mmpy-16/libc.a(memcpy.o)
 .bss           0x0000000000000000        0x0 /home/ape/libs/mspgcc-4.7.3/bin/../lib/gcc/msp430/4.7.3/../../../../msp430/lib/mmpy-16/libc.a(memcpy.o)
 .text          0x0000000000000000        0x0 /home/ape/libs/mspgcc-4.7.3/bin/../lib/gcc/msp430/4.7.3/../../../../msp430/lib/mmpy-16/libc.a(memmove.o)
 .data          0x0000000000000000        0x0 /home/ape/libs/mspgcc-4.7.3/bin/../lib/gcc/msp430/4.7.3/../../../../msp430/lib/mmpy-16/libc.a(memmove.o)
 .bss           0x0000000000000000        0x0 /home/ape/libs/mspgcc-4.7.3/bin/../lib/gcc/msp430/4.7.3/../../../../msp430/lib/mmpy-16/libc.a(memmove.o)
 .text          0x0000000000000000        0x0 /home/ape/libs/mspgcc-4.7.3/bin/../lib/gcc/msp430/4.7.3/../../../../msp430/lib/mmpy-16/libc.a(memset.o)
 .data          0x0000000000000000        0x0 /home/ape/libs/mspgcc-4.7.3/bin/../lib/gcc/msp430/4.7.3/../../../../msp430/lib/mmpy-16/libc.a(memset.o)
 .bss           0x0000000000000000        0x0 /home/ape/libs/mspgcc-4.7.3/bin/../lib/gcc/msp430/4.7.3/../../../../msp430/lib/mmpy-16/libc.a(memset.o)
 .text          0x0000000000000000        0x0 /home/ape/libs/mspgcc-4.7.3/bin/../lib/gcc/msp430/4.7.3/mmpy-16/libgcc.a(_udivmod64.o)
 .data          0x0000000000000000        0x0 /home/ape/libs/mspgcc-4.7.3/bin/../lib/gcc/msp430/4.7.3/mmpy-16/libgcc.a(_udivmod64.o)
 .bss           0x0000000000000000        0x0 /home/ape/libs/mspgcc-4.7.3/bin/../lib/gcc/msp430/4.7.3/mmpy-16/libgcc.a(_udivmod64.o)
 .text          0x0000000000000000        0x0 /home/ape/libs/mspgcc-4.7.3/bin/../lib/gcc/msp430/4.7.3/mmpy-16/libcrt0.a(_reset_vector__.o)
 .data          0x0000000000000000        0x0 /home/ape/libs/mspgcc-4.7.3/bin/../lib/gcc/msp430/4.7.3/mmpy-16/libcrt0.a(_reset_vector__.o)
 .bss           0x0000000000000000        0x0 /home/ape/libs/mspgcc-4.7.3/bin/../lib/gcc/msp430/4.7.3/mmpy-16/libcrt0.a(_reset_vector__.o)
 .text          0x0000000000000000        0x0 /home/ape/libs/mspgcc-4.7.3/bin/../lib/gcc/msp430/4.7.3/mmpy-16/libcrt0.a(__watchdog_support.o)
 .data          0x0000000000000000        0x0 /home/ape/libs/mspgcc-4.7.3/bin/../lib/gcc/msp430/4.7.3/mmpy-16/libcrt0.a(__watchdog_support.o)
 .bss           0x0000000000000000        0x0 /home/ape/libs/mspgcc-4.7.3/bin/../lib/gcc/msp430/4.7.3/mmpy-16/libcrt0.a(__watchdog_support.o)
 .text          0x0000000000000000        0x0 /home/ape/libs/mspgcc-4.7.3/bin/../lib/gcc/msp430/4.7.3/mmpy-16/libcrt0.a(__init_stack.o)
 .data          0x0000000000000000        0x0 /home/ape/libs/mspgcc-4.7.3/bin/../lib/gcc/msp430/4.7.3/mmpy-16/libcrt0.a(__init_stack.o)
 .bss           0x0000000000000000        0x0 /home/ape/libs/mspgcc-4.7.3/bin/../lib/gcc/msp430/4.7.3/mmpy-16/libcrt0.a(__init_stack.o)
 .text          0x0000000000000000        0x0 /home/ape/libs/mspgcc-4.7.3/bin/../lib/gcc/msp430/4.7.3/mmpy-16/libcrt0.a(__low_level_init.o)
 .data          0x0000000000000000        0x0 /home/ape/libs/mspgcc-4.7.3/bin/../lib/gcc/msp430/4.7.3/mmpy-16/libcrt0.a(__low_level_init.o)
 .bss           0x0000000000000000        0x0 /home/ape/libs/mspgcc-4.7.3/bin/../lib/gcc/msp430/4.7.3/mmpy-16/libcrt0.a(__low_level_init.o)
 .text          0x0000000000000000        0x0 /home/ape/libs/mspgcc-4.7.3/bin/../lib/gcc/msp430/4.7.3/mmpy-16/libcrt0.a(_copy_data.o)
 .data          0x0000000000000000        0x0 /home/ape/libs/mspgcc-4.7.3/bin/../lib/gcc/msp430/4.7.3/mmpy-16/libcrt0.a(_copy_data.o)
 .bss           0x0000000000000000        0x0 /home/ape/libs/mspgcc-4.7.3/bin/../lib/gcc/msp430/4.7.3/mmpy-16/libcrt0.a(_copy_data.o)
 .text          0x0000000000000000        0x0 /home/ape/libs/mspgcc-4.7.3/bin/../lib/gcc/msp430/4.7.3/mmpy-16/libcrt0.a(_clear_bss.o)
 .data          0x0000000000000000        0x0 /home/ape/libs/mspgcc-4.7.3/bin/../lib/gcc/msp430/4.7.3/mmpy-16/libcrt0.a(_clear_bss.o)
 .bss           0x0000000000000000        0x0 /home/ape/libs/mspgcc-4.7.3/bin/../lib/gcc/msp430/4.7.3/mmpy-16/libcrt0.a(_clear_bss.o)
 .text          0x0000000000000000        0x0 /home/ape/libs/mspgcc-4.7.3/bin/../lib/gcc/msp430/4.7.3/mmpy-16/libcrt0.a(__stop_progExec__.o)
 .data          0x0000000000000000        0x0 /home/ape/libs/mspgcc-4.7.3/bin/../lib/gcc/msp430/4.7.3/mmpy-16/libcrt0.a(__stop_progExec__.o)
 .bss           0x0000000000000000        0x0 /home/ape/libs/mspgcc-4.7.3/bin/../lib/gcc/msp430/4.7.3/mmpy-16/libcrt0.a(__stop_progExec__.o)
 .text          0x0000000000000000        0x0 /home/ape/libs/mspgcc-4.7.3/bin/../lib/gcc/msp430/4.7.3/mmpy-16/libcrt0.a(_endless_loop__.o)
 .data          0x0000000000000000        0x0 /home/ape/libs/mspgcc-4.7.3/bin/../lib/gcc/msp430/4.7.3/mmpy-16/libcrt0.a(_endless_loop__.o)
 .bss           0x0000000000000000        0x0 /home/ape/libs/mspgcc-4.7.3/bin/../lib/gcc/msp430/4.7.3/mmpy-16/libcrt0.a(_endless_loop__.o)
 .text          0x0000000000000000        0x0 /home/ape/libs/mspgcc-4.7.3/bin/../lib/gcc/msp430/4.7.3/mmpy-16/libcrt0.a(_unexpected_.o)
 .data          0x0000000000000000        0x0 /home/ape/libs/mspgcc-4.7.3/bin/../lib/gcc/msp430/4.7.3/mmpy-16/libcrt0.a(_unexpected_.o)
 .bss           0x0000000000000000        0x0 /home/ape/libs/mspgcc-4.7.3/bin/../lib/gcc/msp430/4.7.3/mmpy-16/libcrt0.a(_unexpected_.o)

Memory Configuration

Name             Origin             Length             Attributes
sfr              0x0000000000000000 0x0000000000000010
peripheral_8bit  0x0000000000000010 0x00000000000000f0
peripheral_16bit 0x0000000000000100 0x0000000000000100
ram_mirror       0x0000000000000200 0x0000000000000800 xw
infomem          0x0000000000001000 0x0000000000000100
infob            0x0000000000001000 0x0000000000000080
infoa            0x0000000000001080 0x0000000000000080
ram              0x0000000000001100 0x0000000000002800 xw
rom              0x0000000000004000 0x000000000000bfe0 xr
vectors          0x000000000000ffe0 0x0000000000000020
bsl              0x0000000000000000 0x0000000000000000
infoc            0x0000000000000000 0x0000000000000000
infod            0x0000000000000000 0x0000000000000000
ram2             0x0000000000000000 0x0000000000000000 xw
usbram           0x0000000000000000 0x0000000000000000 xw
far_rom          0x0000000000000000 0x0000000000000000
*default*        0x0000000000000000 0xffffffffffffffff

Linker script and memory map

LOAD /home/ape/libs/mspgcc-4.7.3/bin/../lib/gcc/msp430/4.7.3/mmpy-16/crt0ivtbl16.o
                0x0000000000002f1a                _stack = _end
LOAD build/sky/obj/aes-128.o
LOAD build/sky/obj/anti-replay.o
LOAD build/sky/obj/assert.o
LOAD build/sky/obj/atomic.o
LOAD build/sky/obj/autostart.o
LOAD build/sky/obj/battery-sensor.o
LOAD build/sky/obj/border-router-embedded.o
LOAD build/sky/obj/button-hal.o
LOAD build/sky/obj/button-sensor.o
LOAD build/sky/obj/cc2420-arch-sfd.o
LOAD build/sky/obj/cc2420-arch.o
LOAD build/sky/obj/cc2420-tsch-15ms.o
LOAD build/sky/obj/cc2420.o
LOAD build/sky/obj/ccm-star-packetbuf.o
LOAD build/sky/obj/ccm-star.o
LOAD build/sky/obj/cfs-coffee.o
LOAD build/sky/obj/circular-list.o
LOAD build/sky/obj/clock.o
LOAD build/sky/obj/compower.o
LOAD build/sky/obj/contiki-main.o
LOAD build/sky/obj/contiki-sky-platform.o
LOAD build/sky/obj/crc16.o
LOAD build/sky/obj/csma-output.o
LOAD build/sky/obj/csma-security.o
LOAD build/sky/obj/csma.o
LOAD build/sky/obj/ctimer.o
LOAD build/sky/obj/dbl-circ-list.o
LOAD build/sky/obj/dbl-list.o
LOAD build/sky/obj/ds2411.o
LOAD build/sky/obj/energest.o
LOAD build/sky/obj/etimer.o
LOAD build/sky/obj/flash.o
LOAD build/sky/obj/frame802154.o
LOAD build/sky/obj/frame802154e-ie.o
LOAD build/sky/obj/framer-802154.o
LOAD build/sky/obj/gpio-hal.o
LOAD build/sky/obj/heapmem.o
LOAD build/sky/obj/hexconv.o
LOAD build/sky/obj/i2c.o
LOAD build/sky/obj/ifft.o
LOAD build/sky/obj/int-master.o
LOAD build/sky/obj/ip64-addr.o
LOAD build/sky/obj/leds-arch.o
LOAD build/sky/obj/leds.o
LOAD build/sky/obj/light-sensor.o
LOAD build/sky/obj/link-stats.o
LOAD build/sky/obj/linkaddr.o
LOAD build/sky/obj/list.o
LOAD build/sky/obj/log.o
LOAD build/sky/obj/lpm.o
LOAD build/sky/obj/mac-sequence.o
LOAD build/sky/obj/mac.o
LOAD build/sky/obj/memb.o
LOAD build/sky/obj/msp430.o
LOAD build/sky/obj/mutex.o
LOAD build/sky/obj/nbr-table.o
LOAD build/sky/obj/net-debug.o
LOAD build/sky/obj/netstack.o
LOAD build/sky/obj/node-id.o
LOAD build/sky/obj/nullframer.o
LOAD build/sky/obj/nullradio.o
LOAD build/sky/obj/packetbuf.o
LOAD build/sky/obj/platform.o
LOAD build/sky/obj/process.o
LOAD build/sky/obj/psock.o
LOAD build/sky/obj/queuebuf.o
LOAD build/sky/obj/random.o
LOAD build/sky/obj/ringbuf.o
LOAD build/sky/obj/ringbufindex.o
LOAD build/sky/obj/rpl-border-router.o
LOAD build/sky/obj/rpl-dag-root.o
LOAD build/sky/obj/rpl-dag.o
LOAD build/sky/obj/rpl-ext-header.o
LOAD build/sky/obj/rpl-icmp6.o
LOAD build/sky/obj/rpl-mrhof.o
LOAD build/sky/obj/rpl-nbr-policy.o
LOAD build/sky/obj/rpl-of0.o
LOAD build/sky/obj/rpl-timers.o
LOAD build/sky/obj/rpl.o
LOAD build/sky/obj/rpl_node.o
LOAD build/sky/obj/rtimer-arch.o
LOAD build/sky/obj/rtimer.o
LOAD build/sky/obj/sensors.o
LOAD build/sky/obj/serial-line.o
LOAD build/sky/obj/sht11-sensor.o
LOAD build/sky/obj/sht11.o
LOAD build/sky/obj/sicslowpan.o
LOAD build/sky/obj/simple-udp.o
LOAD build/sky/obj/sky-sensors.o
LOAD build/sky/obj/slip-bridge.o
LOAD build/sky/obj/slip.o
LOAD build/sky/obj/slip_uart1.o
LOAD build/sky/obj/spi-legacy.o
LOAD build/sky/obj/spi.o
LOAD build/sky/obj/stack-check.o
LOAD build/sky/obj/stimer.o
LOAD build/sky/obj/tcp-socket.o
LOAD build/sky/obj/tcpip.o
LOAD build/sky/obj/timer.o
LOAD build/sky/obj/trickle-timer.o
LOAD build/sky/obj/uart1-putchar.o
LOAD build/sky/obj/uart1.o
LOAD build/sky/obj/udp-socket.o
LOAD build/sky/obj/uip-ds6-nbr.o
LOAD build/sky/obj/uip-ds6-route.o
LOAD build/sky/obj/uip-ds6.o
LOAD build/sky/obj/uip-icmp6.o
LOAD build/sky/obj/uip-ipchksum.o
LOAD build/sky/obj/uip-nameserver.o
LOAD build/sky/obj/uip-nd6.o
LOAD build/sky/obj/uip-packetqueue.o
LOAD build/sky/obj/uip-sr.o
LOAD build/sky/obj/uip-udp-packet.o
LOAD build/sky/obj/uip6.o
LOAD build/sky/obj/uipbuf.o
LOAD build/sky/obj/uiplib.o
LOAD build/sky/obj/watchdog.o
LOAD build/sky/obj/xmem.o
LOAD /home/ape/libs/mspgcc-4.7.3/bin/../lib/gcc/msp430/4.7.3/mmpy-16/libgcc.a
LOAD /home/ape/libs/mspgcc-4.7.3/bin/../lib/gcc/msp430/4.7.3/../../../../msp430/lib/mmpy-16/libc.a
LOAD /home/ape/libs/mspgcc-4.7.3/bin/../lib/gcc/msp430/4.7.3/mmpy-16/libgcc.a
LOAD /home/ape/libs/mspgcc-4.7.3/bin/../lib/gcc/msp430/4.7.3/mmpy-16/libcrt0.a
                0x0000000000000080                PROVIDE (__info_segment_size, 0x80)
                0x0000000000001000                PROVIDE (__infob, 0x1000)
                0x0000000000001080                PROVIDE (__infoa, 0x1080)
                0x0000000000000000                __IE1 = 0x0
                0x0000000000000002                __IFG1 = 0x2
                0x0000000000000004                __ME1 = 0x4
                0x0000000000000001                __IE2 = 0x1
                0x0000000000000003                __IFG2 = 0x3
                0x0000000000000005                __ME2 = 0x5
                0x0000000000000120                __WDTCTL = 0x120
                0x0000000000000130                __MPY = 0x130
                0x0000000000000132                __MPYS = 0x132
                0x0000000000000134                __MAC = 0x134
                0x0000000000000136                __MACS = 0x136
                0x0000000000000138                __OP2 = 0x138
                0x000000000000013a                __RESLO = 0x13a
                0x000000000000013c                __RESHI = 0x13c
                0x000000000000013e                __SUMEXT = 0x13e
                0x0000000000000020                __P1IN = 0x20
                0x0000000000000021                __P1OUT = 0x21
                0x0000000000000022                __P1DIR = 0x22
                0x0000000000000023                __P1IFG = 0x23
                0x0000000000000024                __P1IES = 0x24
                0x0000000000000025                __P1IE = 0x25
                0x0000000000000026                __P1SEL = 0x26
                0x0000000000000028                __P2IN = 0x28
                0x0000000000000029                __P2OUT = 0x29
                0x000000000000002a                __P2DIR = 0x2a
                0x000000000000002b                __P2IFG = 0x2b
                0x000000000000002c                __P2IES = 0x2c
                0x000000000000002d                __P2IE = 0x2d
                0x000000000000002e                __P2SEL = 0x2e
                0x0000000000000018                __P3IN = 0x18
                0x0000000000000019                __P3OUT = 0x19
                0x000000000000001a                __P3DIR = 0x1a
                0x000000000000001b                __P3SEL = 0x1b
                0x000000000000001c                __P4IN = 0x1c
                0x000000000000001d                __P4OUT = 0x1d
                0x000000000000001e                __P4DIR = 0x1e
                0x000000000000001f                __P4SEL = 0x1f
                0x0000000000000030                __P5IN = 0x30
                0x0000000000000031                __P5OUT = 0x31
                0x0000000000000032                __P5DIR = 0x32
                0x0000000000000033                __P5SEL = 0x33
                0x0000000000000034                __P6IN = 0x34
                0x0000000000000035                __P6OUT = 0x35
                0x0000000000000036                __P6DIR = 0x36
                0x0000000000000037                __P6SEL = 0x37
                0x0000000000000070                __U0CTL = 0x70
                0x0000000000000071                __U0TCTL = 0x71
                0x0000000000000072                __U0RCTL = 0x72
                0x0000000000000073                __U0MCTL = 0x73
                0x0000000000000074                __U0BR0 = 0x74
                0x0000000000000075                __U0BR1 = 0x75
                0x0000000000000076                __U0RXBUF = 0x76
                0x0000000000000077                __U0TXBUF = 0x77
                0x0000000000000078                __U1CTL = 0x78
                0x0000000000000079                __U1TCTL = 0x79
                0x000000000000007a                __U1RCTL = 0x7a
                0x000000000000007b                __U1MCTL = 0x7b
                0x000000000000007c                __U1BR0 = 0x7c
                0x000000000000007d                __U1BR1 = 0x7d
                0x000000000000007e                __U1RXBUF = 0x7e
                0x000000000000007f                __U1TXBUF = 0x7f
                0x0000000000000050                __I2CIE = 0x50
                0x0000000000000051                __I2CIFG = 0x51
                0x0000000000000052                __I2CNDAT = 0x52
                0x0000000000000071                __I2CTCTL = 0x71
                0x0000000000000072                __I2CDCTL = 0x72
                0x0000000000000073                __I2CPSC = 0x73
                0x0000000000000074                __I2CSCLH = 0x74
                0x0000000000000075                __I2CSCLL = 0x75
                0x0000000000000076                __I2CDRB = 0x76
                0x0000000000000076                __I2CDRW = 0x76
                0x0000000000000118                __I2COA = 0x118
                0x000000000000011a                __I2CSA = 0x11a
                0x000000000000011c                __I2CIV = 0x11c
                0x000000000000012e                __TAIV = 0x12e
                0x0000000000000160                __TACTL = 0x160
                0x0000000000000162                __TACCTL0 = 0x162
                0x0000000000000164                __TACCTL1 = 0x164
                0x0000000000000166                __TACCTL2 = 0x166
                0x0000000000000170                __TAR = 0x170
                0x0000000000000172                __TACCR0 = 0x172
                0x0000000000000174                __TACCR1 = 0x174
                0x0000000000000176                __TACCR2 = 0x176
                0x000000000000011e                __TBIV = 0x11e
                0x0000000000000180                __TBCTL = 0x180
                0x0000000000000182                __TBCCTL0 = 0x182
                0x0000000000000184                __TBCCTL1 = 0x184
                0x0000000000000186                __TBCCTL2 = 0x186
                0x0000000000000188                __TBCCTL3 = 0x188
                0x000000000000018a                __TBCCTL4 = 0x18a
                0x000000000000018c                __TBCCTL5 = 0x18c
                0x000000000000018e                __TBCCTL6 = 0x18e
                0x0000000000000190                __TBR = 0x190
                0x0000000000000192                __TBCCR0 = 0x192
                0x0000000000000194                __TBCCR1 = 0x194
                0x0000000000000196                __TBCCR2 = 0x196
                0x0000000000000198                __TBCCR3 = 0x198
                0x000000000000019a                __TBCCR4 = 0x19a
                0x000000000000019c                __TBCCR5 = 0x19c
                0x000000000000019e                __TBCCR6 = 0x19e
                0x0000000000000056                __DCOCTL = 0x56
                0x0000000000000057                __BCSCTL1 = 0x57
                0x0000000000000058                __BCSCTL2 = 0x58
                0x0000000000000055                __SVSCTL = 0x55
                0x0000000000000128                __FCTL1 = 0x128
                0x000000000000012a                __FCTL2 = 0x12a
                0x000000000000012c                __FCTL3 = 0x12c
                0x0000000000000059                __CACTL1 = 0x59
                0x000000000000005a                __CACTL2 = 0x5a
                0x000000000000005b                __CAPD = 0x5b
                0x00000000000001a0                __ADC12CTL0 = 0x1a0
                0x00000000000001a2                __ADC12CTL1 = 0x1a2
                0x00000000000001a4                __ADC12IFG = 0x1a4
                0x00000000000001a6                __ADC12IE = 0x1a6
                0x00000000000001a8                __ADC12IV = 0x1a8
                0x0000000000000140                __ADC12MEM0 = 0x140
                0x0000000000000142                __ADC12MEM1 = 0x142
                0x0000000000000144                __ADC12MEM2 = 0x144
                0x0000000000000146                __ADC12MEM3 = 0x146
                0x0000000000000148                __ADC12MEM4 = 0x148
                0x000000000000014a                __ADC12MEM5 = 0x14a
                0x000000000000014c                __ADC12MEM6 = 0x14c
                0x000000000000014e                __ADC12MEM7 = 0x14e
                0x0000000000000150                __ADC12MEM8 = 0x150
                0x0000000000000152                __ADC12MEM9 = 0x152
                0x0000000000000154                __ADC12MEM10 = 0x154
                0x0000000000000156                __ADC12MEM11 = 0x156
                0x0000000000000158                __ADC12MEM12 = 0x158
                0x000000000000015a                __ADC12MEM13 = 0x15a
                0x000000000000015c                __ADC12MEM14 = 0x15c
                0x000000000000015e                __ADC12MEM15 = 0x15e
                0x0000000000000080                __ADC12MCTL0 = 0x80
                0x0000000000000081                __ADC12MCTL1 = 0x81
                0x0000000000000082                __ADC12MCTL2 = 0x82
                0x0000000000000083                __ADC12MCTL3 = 0x83
                0x0000000000000084                __ADC12MCTL4 = 0x84
                0x0000000000000085                __ADC12MCTL5 = 0x85
                0x0000000000000086                __ADC12MCTL6 = 0x86
                0x0000000000000087                __ADC12MCTL7 = 0x87
                0x0000000000000088                __ADC12MCTL8 = 0x88
                0x0000000000000089                __ADC12MCTL9 = 0x89
                0x000000000000008a                __ADC12MCTL10 = 0x8a
                0x000000000000008b                __ADC12MCTL11 = 0x8b
                0x000000000000008c                __ADC12MCTL12 = 0x8c
                0x000000000000008d                __ADC12MCTL13 = 0x8d
                0x000000000000008e                __ADC12MCTL14 = 0x8e
                0x000000000000008f                __ADC12MCTL15 = 0x8f
                0x00000000000001c0                __DAC12_0CTL = 0x1c0
                0x00000000000001c2                __DAC12_1CTL = 0x1c2
                0x00000000000001c8                __DAC12_0DAT = 0x1c8
                0x00000000000001ca                __DAC12_1DAT = 0x1ca
                0x0000000000000122                __DMACTL0 = 0x122
                0x0000000000000124                __DMACTL1 = 0x124
                0x00000000000001e0                __DMA0CTL = 0x1e0
                0x00000000000001e8                __DMA1CTL = 0x1e8
                0x00000000000001f0                __DMA2CTL = 0x1f0
                0x00000000000001e2                __DMA0SA = 0x1e2
                0x00000000000001e4                __DMA0DA = 0x1e4
                0x00000000000001e6                __DMA0SZ = 0x1e6
                0x00000000000001ea                __DMA1SA = 0x1ea
                0x00000000000001ec                __DMA1DA = 0x1ec
                0x00000000000001ee                __DMA1SZ = 0x1ee
                0x00000000000001f2                __DMA2SA = 0x1f2
                0x00000000000001f4                __DMA2DA = 0x1f4
                0x00000000000001f6                __DMA2SZ = 0x1f6

.hash
 *(SORT(.hash))

.dynsym
 *(SORT(.dynsym))

.dynstr
 *(SORT(.dynstr))

.gnu.version
 *(SORT(.gnu.version))

.gnu.version_d
 *(SORT(.gnu.version_d))

.gnu.version_r
 *(SORT(.gnu.version_r))

.rel.init
 *(SORT(.rel.init))

.rela.init
 *(SORT(.rela.init))

.rel.fini
 *(SORT(.rel.fini))

.rela.fini
 *(SORT(.rela.fini))

.rel.text
 *(SORT(.rel.text) SORT(.rel.text.*) SORT(.rel.gnu.linkonce.t.*))

.rela.text
 *(SORT(.rela.text) SORT(.rela.text.*) SORT(.rela.gnu.linkonce.t.*))

.rel.rodata
 *(SORT(.rel.rodata) SORT(.rel.rodata.*) SORT(.rel.gnu.linkonce.r.*))

.rela.rodata
 *(SORT(.rela.rodata) SORT(.rela.rodata.*) SORT(.rela.gnu.linkonce.r.*))

.rel.data
 *(SORT(.rel.data) SORT(.rel.data.*) SORT(.rel.gnu.linkonce.d.*))

.rela.data
 *(SORT(.rela.data) SORT(.rela.data.*) SORT(.rela.gnu.linkonce.d.*))

.rel.bss
 *(SORT(.rel.bss) SORT(.rel.bss.*) SORT(.rel.gnu.linkonce.b.*))

.rela.bss
 *(SORT(.rela.bss) SORT(.rela.bss.*) SORT(.rela.gnu.linkonce.b.*))

.rel.ctors
 *(SORT(.rel.ctors))

.rela.ctors
 *(SORT(.rela.ctors))

.rel.dtors
 *(SORT(.rel.dtors))

.rela.dtors
 *(SORT(.rela.dtors))

.rel.got
 *(SORT(.rel.got))

.rela.got
 *(SORT(.rela.got))

.rel.plt
 *(SORT(.rel.plt))

.rela.plt
 *(SORT(.rela.plt))

.text           0x0000000000004000     0xb330
                0x0000000000004000                . = ALIGN (0x2)
 *(SORT(.init) SORT(.init.*))
 *(SORT(.init0))
 .init0         0x0000000000004000        0x0 /home/ape/libs/mspgcc-4.7.3/bin/../lib/gcc/msp430/4.7.3/mmpy-16/libcrt0.a(_reset_vector__.o)
                0x0000000000004000                _reset_vector__
 *(SORT(.init1))
 .init1         0x0000000000004000        0xc /home/ape/libs/mspgcc-4.7.3/bin/../lib/gcc/msp430/4.7.3/mmpy-16/libcrt0.a(__watchdog_support.o)
                0x0000000000004000                __watchdog_support
 *(SORT(.init2))
 .init2         0x000000000000400c        0x4 /home/ape/libs/mspgcc-4.7.3/bin/../lib/gcc/msp430/4.7.3/mmpy-16/libcrt0.a(__init_stack.o)
                0x000000000000400c                __init_stack
 *(SORT(.init3))
 .init3         0x0000000000004010        0x0 /home/ape/libs/mspgcc-4.7.3/bin/../lib/gcc/msp430/4.7.3/mmpy-16/libcrt0.a(__low_level_init.o)
                0x0000000000004010                __low_level_init
 *(SORT(.init4))
 .init4         0x0000000000004010       0x18 /home/ape/libs/mspgcc-4.7.3/bin/../lib/gcc/msp430/4.7.3/mmpy-16/libcrt0.a(_copy_data.o)
                0x0000000000004010                __do_copy_data
 .init4         0x0000000000004028       0x16 /home/ape/libs/mspgcc-4.7.3/bin/../lib/gcc/msp430/4.7.3/mmpy-16/libcrt0.a(_clear_bss.o)
                0x0000000000004028                __do_clear_bss
 *(SORT(.init5))
 *(SORT(.init6))
 *(SORT(.init7))
 *(SORT(.init8))
 *(SORT(.init9))
 .init9         0x000000000000403e      0x236 build/sky/obj/contiki-main.o
                0x000000000000403e                main
 *(SORT(.fini9))
 .fini9         0x0000000000004274        0x0 /home/ape/libs/mspgcc-4.7.3/bin/../lib/gcc/msp430/4.7.3/mmpy-16/libcrt0.a(__stop_progExec__.o)
                0x0000000000004274                __stop_progExec__
 *(SORT(.fini8))
 *(SORT(.fini7))
 *(SORT(.fini6))
 *(SORT(.fini5))
 *(SORT(.fini4))
 *(SORT(.fini3))
 *(SORT(.fini2))
 *(SORT(.fini1))
 *(SORT(.fini0))
 .fini0         0x0000000000004274        0x6 /home/ape/libs/mspgcc-4.7.3/bin/../lib/gcc/msp430/4.7.3/mmpy-16/libcrt0.a(_endless_loop__.o)
                0x0000000000004274                _endless_loop__
 *(SORT(.fini) SORT(.fini.*))
                0x000000000000427a                . = ALIGN (0x2)
                0x000000000000427a                __ctors_start = .
 *(SORT(.ctors))
                0x000000000000427a                __ctors_end = .
                0x000000000000427a                __dtors_start = .
 *(SORT(.dtors))
                0x000000000000427a                __dtors_end = .
                0x000000000000427a                . = ALIGN (0x2)
 *(SORT(.text) SORT(.text.*) SORT(.gnu.linkonce.t.*))
 .text          0x000000000000427a        0x4 /home/ape/libs/mspgcc-4.7.3/bin/../lib/gcc/msp430/4.7.3/mmpy-16/crt0ivtbl16.o
                0x000000000000427a                __isr_14
                0x000000000000427a                __isr_11
                0x000000000000427a                __isr_2
                0x000000000000427a                __isr_7
                0x000000000000427a                __isr_0
                0x000000000000427a                __isr_8
                0x000000000000427a                __isr_3
                0x000000000000427a                __isr_13
                0x000000000000427a                __isr_9
 .text.autostart_start
                0x000000000000427e       0x16 build/sky/obj/autostart.o
                0x000000000000427e                autostart_start
 .text.process_thread_border_router_process
                0x0000000000004294      0x10e build/sky/obj/border-router-embedded.o
 .text.status   0x00000000000043a2       0x18 build/sky/obj/button-sensor.o
 .text.value    0x00000000000043ba       0x20 build/sky/obj/button-sensor.o
 .text.configure
                0x00000000000043da       0x4c build/sky/obj/button-sensor.o
 .text.irq_p2   0x0000000000004426       0x46 build/sky/obj/button-sensor.o
                0x0000000000004426                irq_p2
                0x0000000000004426                __isr_1
 .text.cc2420_timerb1_interrupt
                0x000000000000446c       0x26 build/sky/obj/cc2420-arch-sfd.o
                0x000000000000446c                cc2420_timerb1_interrupt
                0x000000000000446c                __isr_12
 .text.cc2420_port1_interrupt
                0x0000000000004492       0x20 build/sky/obj/cc2420-arch.o
                0x0000000000004492                __isr_4
                0x0000000000004492                cc2420_port1_interrupt
 .text.cc2420_arch_init
                0x00000000000044b2       0x1a build/sky/obj/cc2420-arch.o
                0x00000000000044b2                cc2420_arch_init
 .text.get_object
                0x00000000000044cc        0x4 build/sky/obj/cc2420.o
 .text.set_object
                0x00000000000044d0        0x4 build/sky/obj/cc2420.o
 .text.strobe   0x00000000000044d4       0x1c build/sky/obj/cc2420.o
 .text.getreg   0x00000000000044f0       0x4c build/sky/obj/cc2420.o
 .text.setreg   0x000000000000453c       0x4c build/sky/obj/cc2420.o
 .text.write_ram
                0x0000000000004588       0x7c build/sky/obj/cc2420.o
 .text.write_fifo_buf
                0x0000000000004604       0x3c build/sky/obj/cc2420.o
 .text.get_status
                0x0000000000004640       0x20 build/sky/obj/cc2420.o
 .text.on       0x0000000000004660       0x1a build/sky/obj/cc2420.o
 .text.cc2420_receiving_packet
                0x000000000000467a        0xc build/sky/obj/cc2420.o
 .text.pending_packet
                0x0000000000004686        0x8 build/sky/obj/cc2420.o
 .text.wait_for_transmission
                0x000000000000468e       0x22 build/sky/obj/cc2420.o
 .text.wait_for_status
                0x00000000000046b0       0x28 build/sky/obj/cc2420.o
 .text.getrxdata
                0x00000000000046d8       0x50 build/sky/obj/cc2420.o
 .text.flushrx  0x0000000000004728       0x1a build/sky/obj/cc2420.o
 .text.off      0x0000000000004742       0x28 build/sky/obj/cc2420.o
 .text.RELEASE_LOCK
                0x000000000000476a       0x28 build/sky/obj/cc2420.o
 .text.set_key  0x0000000000004792       0x18 build/sky/obj/cc2420.o
 .text.set_frame_filtering
                0x00000000000047aa       0x30 build/sky/obj/cc2420.o
 .text.set_auto_ack
                0x00000000000047da       0x30 build/sky/obj/cc2420.o
 .text.set_poll_mode
                0x000000000000480a       0x2c build/sky/obj/cc2420.o
 .text.cc2420_prepare
                0x0000000000004836       0x46 build/sky/obj/cc2420.o
 .text.cc2420_on
                0x000000000000487c       0x22 build/sky/obj/cc2420.o
                0x000000000000487c                cc2420_on
 .text.cc2420_transmit
                0x000000000000489e       0x66 build/sky/obj/cc2420.o
 .text.cc2420_send
                0x0000000000004904       0x12 build/sky/obj/cc2420.o
 .text.cc2420_off
                0x0000000000004916       0x30 build/sky/obj/cc2420.o
                0x0000000000004916                cc2420_off
 .text.cc2420_cca
                0x0000000000004946       0x68 build/sky/obj/cc2420.o
 .text.cc2420_read
                0x00000000000049ae       0xbe build/sky/obj/cc2420.o
 .text.process_thread_cc2420_process
                0x0000000000004a6c       0x56 build/sky/obj/cc2420.o
 .text.encrypt  0x0000000000004ac2       0x88 build/sky/obj/cc2420.o
 .text.cc2420_set_channel
                0x0000000000004b4a       0x3c build/sky/obj/cc2420.o
                0x0000000000004b4a                cc2420_set_channel
 .text.cc2420_set_pan_addr
                0x0000000000004b86       0x4c build/sky/obj/cc2420.o
                0x0000000000004b86                cc2420_set_pan_addr
 .text.cc2420_interrupt
                0x0000000000004bd2       0x16 build/sky/obj/cc2420.o
                0x0000000000004bd2                cc2420_interrupt
 .text.cc2420_set_txpower
                0x0000000000004be8       0x2c build/sky/obj/cc2420.o
                0x0000000000004be8                cc2420_set_txpower
 .text.cc2420_get_txpower
                0x0000000000004c14       0x1e build/sky/obj/cc2420.o
                0x0000000000004c14                cc2420_get_txpower
 .text.cc2420_rssi
                0x0000000000004c32       0x4c build/sky/obj/cc2420.o
                0x0000000000004c32                cc2420_rssi
 .text.get_value
                0x0000000000004c7e      0x11e build/sky/obj/cc2420.o
 .text.cc2420_set_cca_threshold
                0x0000000000004d9c       0x16 build/sky/obj/cc2420.o
                0x0000000000004d9c                cc2420_set_cca_threshold
 .text.set_value
                0x0000000000004db2      0x150 build/sky/obj/cc2420.o
 .text.cc2420_init
                0x0000000000004f02       0xea build/sky/obj/cc2420.o
                0x0000000000004f02                cc2420_init
 .text.timera1  0x0000000000004fec       0xdc build/sky/obj/clock.o
                0x0000000000004fec                __isr_5
                0x0000000000004fec                timera1
 .text.clock_time
                0x00000000000050c8       0x1a build/sky/obj/clock.o
                0x00000000000050c8                clock_time
 .text.clock_init
                0x00000000000050e2       0x28 build/sky/obj/clock.o
                0x00000000000050e2                clock_init
 .text.clock_delay
                0x000000000000510a        0xc build/sky/obj/clock.o
                0x000000000000510a                clock_delay
 .text.clock_seconds
                0x0000000000005116       0x1a build/sky/obj/clock.o
                0x0000000000005116                clock_seconds
 .text.init_platform
                0x0000000000005130        0xc build/sky/obj/contiki-sky-platform.o
                0x0000000000005130                init_platform
 .text.schedule_transmission
                0x000000000000513c       0x70 build/sky/obj/csma-output.o
 .text.tx_done  0x00000000000051ac       0x9a build/sky/obj/csma-output.o
 .text.transmit_from_queue
                0x0000000000005246      0x1c0 build/sky/obj/csma-output.o
 .text.csma_output_packet
                0x0000000000005406      0x158 build/sky/obj/csma-output.o
                0x0000000000005406                csma_output_packet
 .text.csma_output_init
                0x000000000000555e       0x1a build/sky/obj/csma-output.o
                0x000000000000555e                csma_output_init
 .text.csma_security_create_frame
                0x0000000000005578       0x10 build/sky/obj/csma-security.o
                0x0000000000005578                csma_security_create_frame
 .text.csma_security_parse_frame
                0x0000000000005588        0x6 build/sky/obj/csma-security.o
                0x0000000000005588                csma_security_parse_frame
 .text.on       0x000000000000558e        0x6 build/sky/obj/csma.o
 .text.off      0x0000000000005594        0x6 build/sky/obj/csma.o
 .text.max_payload
                0x000000000000559a       0x38 build/sky/obj/csma.o
 .text.send_packet
                0x00000000000055d2        0x6 build/sky/obj/csma.o
 .text.input_packet
                0x00000000000055d8       0x58 build/sky/obj/csma.o
 .text.init     0x0000000000005630       0x20 build/sky/obj/csma.o
 .text.process_thread_ctimer_process
                0x0000000000005650       0xa8 build/sky/obj/ctimer.o
 .text.ctimer_init
                0x00000000000056f8       0x18 build/sky/obj/ctimer.o
                0x00000000000056f8                ctimer_init
 .text.ctimer_set_with_process
                0x0000000000005710       0x4e build/sky/obj/ctimer.o
                0x0000000000005710                ctimer_set_with_process
 .text.ctimer_set
                0x000000000000575e       0x10 build/sky/obj/ctimer.o
                0x000000000000575e                ctimer_set
 .text.ctimer_reset
                0x000000000000576e       0x30 build/sky/obj/ctimer.o
                0x000000000000576e                ctimer_reset
 .text.ctimer_stop
                0x000000000000579e       0x28 build/sky/obj/ctimer.o
                0x000000000000579e                ctimer_stop
 .text.owreadb  0x00000000000057c6       0x50 build/sky/obj/ds2411.o
 .text.ds2411_init
                0x0000000000005816      0x120 build/sky/obj/ds2411.o
                0x0000000000005816                ds2411_init
 .text.energest_init
                0x0000000000005936        0x2 build/sky/obj/energest.o
                0x0000000000005936                energest_init
 .text.energest_flush
                0x0000000000005938        0x2 build/sky/obj/energest.o
                0x0000000000005938                energest_flush
 .text.update_time
                0x000000000000593a       0x78 build/sky/obj/etimer.o
 .text.etimer_request_poll
                0x00000000000059b2        0xa build/sky/obj/etimer.o
                0x00000000000059b2                etimer_request_poll
 .text.process_thread_etimer_process
                0x00000000000059bc       0xcc build/sky/obj/etimer.o
 .text.add_timer
                0x0000000000005a88       0x40 build/sky/obj/etimer.o
 .text.etimer_set
                0x0000000000005ac8       0x12 build/sky/obj/etimer.o
                0x0000000000005ac8                etimer_set
 .text.etimer_reset
                0x0000000000005ada       0x12 build/sky/obj/etimer.o
                0x0000000000005ada                etimer_reset
 .text.etimer_expired
                0x0000000000005aec        0xe build/sky/obj/etimer.o
                0x0000000000005aec                etimer_expired
 .text.etimer_expiration_time
                0x0000000000005afa       0x14 build/sky/obj/etimer.o
                0x0000000000005afa                etimer_expiration_time
 .text.etimer_pending
                0x0000000000005b0e        0xc build/sky/obj/etimer.o
                0x0000000000005b0e                etimer_pending
 .text.etimer_next_expiration_time
                0x0000000000005b1a       0x16 build/sky/obj/etimer.o
                0x0000000000005b1a                etimer_next_expiration_time
 .text.etimer_stop
                0x0000000000005b30       0x3e build/sky/obj/etimer.o
                0x0000000000005b30                etimer_stop
 .text.frame802154_get_pan_id
                0x0000000000005b6e        0x6 build/sky/obj/frame802154.o
                0x0000000000005b6e                frame802154_get_pan_id
 .text.frame802154_has_panid
                0x0000000000005b74       0xe0 build/sky/obj/frame802154.o
                0x0000000000005b74                frame802154_has_panid
 .text.field_len
                0x0000000000005c54       0xac build/sky/obj/frame802154.o
 .text.frame802154_is_broadcast_addr
                0x0000000000005d00       0x28 build/sky/obj/frame802154.o
                0x0000000000005d00                frame802154_is_broadcast_addr
 .text.frame802154_hdrlen
                0x0000000000005d28       0x32 build/sky/obj/frame802154.o
                0x0000000000005d28                frame802154_hdrlen
 .text.frame802154_create_fcf
                0x0000000000005d5a       0x96 build/sky/obj/frame802154.o
                0x0000000000005d5a                frame802154_create_fcf
 .text.frame802154_create
                0x0000000000005df0       0xe4 build/sky/obj/frame802154.o
                0x0000000000005df0                frame802154_create
 .text.frame802154_parse_fcf
                0x0000000000005ed4       0xbc build/sky/obj/frame802154.o
                0x0000000000005ed4                frame802154_parse_fcf
 .text.frame802154_parse
                0x0000000000005f90      0x168 build/sky/obj/frame802154.o
                0x0000000000005f90                frame802154_parse
 .text.parse    0x00000000000060f8       0xa2 build/sky/obj/framer-802154.o
 .text.framer_802154_setup_params
                0x000000000000619a       0xb8 build/sky/obj/framer-802154.o
                0x000000000000619a                framer_802154_setup_params
 .text.create_frame
                0x0000000000006252       0xa2 build/sky/obj/framer-802154.o
 .text.create   0x00000000000062f4        0x8 build/sky/obj/framer-802154.o
 .text.hdr_length
                0x00000000000062fc        0x8 build/sky/obj/framer-802154.o
 .text.leds_arch_init
                0x0000000000006304        0xe build/sky/obj/leds-arch.o
                0x0000000000006304                leds_arch_init
 .text.leds_arch_get
                0x0000000000006312       0x34 build/sky/obj/leds-arch.o
                0x0000000000006312                leds_arch_get
 .text.leds_arch_set
                0x0000000000006346       0x3e build/sky/obj/leds-arch.o
                0x0000000000006346                leds_arch_set
 .text.leds_init
                0x0000000000006384        0x6 build/sky/obj/leds.o
                0x0000000000006384                leds_init
 .text.leds_on  0x000000000000638a       0x12 build/sky/obj/leds.o
                0x000000000000638a                leds_on
 .text.leds_off
                0x000000000000639c       0x12 build/sky/obj/leds.o
                0x000000000000639c                leds_off
 .text.periodic
                0x00000000000063ae       0x28 build/sky/obj/link-stats.o
 .text.link_stats_from_lladdr
                0x00000000000063d6        0xc build/sky/obj/link-stats.o
                0x00000000000063d6                link_stats_from_lladdr
 .text.link_stats_is_fresh
                0x00000000000063e2       0x30 build/sky/obj/link-stats.o
                0x00000000000063e2                link_stats_is_fresh
 .text.link_stats_packet_sent
                0x0000000000006412       0xf4 build/sky/obj/link-stats.o
                0x0000000000006412                link_stats_packet_sent
 .text.link_stats_input_callback
                0x0000000000006506      0x106 build/sky/obj/link-stats.o
                0x0000000000006506                link_stats_input_callback
 .text.link_stats_init
                0x000000000000660c       0x22 build/sky/obj/link-stats.o
                0x000000000000660c                link_stats_init
 .text.linkaddr_copy
                0x000000000000662e        0x8 build/sky/obj/linkaddr.o
                0x000000000000662e                linkaddr_copy
 .text.linkaddr_cmp
                0x0000000000006636       0x12 build/sky/obj/linkaddr.o
                0x0000000000006636                linkaddr_cmp
 .text.linkaddr_set_node_addr
                0x0000000000006648        0xc build/sky/obj/linkaddr.o
                0x0000000000006648                linkaddr_set_node_addr
 .text.list_init
                0x0000000000006654        0x6 build/sky/obj/list.o
                0x0000000000006654                list_init
 .text.list_head
                0x000000000000665a        0x4 build/sky/obj/list.o
                0x000000000000665a                list_head
 .text.list_tail
                0x000000000000665e       0x12 build/sky/obj/list.o
                0x000000000000665e                list_tail
 .text.list_remove
                0x0000000000006670       0x34 build/sky/obj/list.o
                0x0000000000006670                list_remove
 .text.list_push
                0x00000000000066a4       0x1a build/sky/obj/list.o
                0x00000000000066a4                list_push
 .text.list_add
                0x00000000000066be       0x2a build/sky/obj/list.o
                0x00000000000066be                list_add
 .text.list_length
                0x00000000000066e8       0x10 build/sky/obj/list.o
                0x00000000000066e8                list_length
 .text.list_item_next
                0x00000000000066f8        0xc build/sky/obj/list.o
                0x00000000000066f8                list_item_next
 .text.log_6addr
                0x0000000000006704       0x32 build/sky/obj/log.o
                0x0000000000006704                log_6addr
 .text.log_lladdr
                0x0000000000006736       0x44 build/sky/obj/log.o
                0x0000000000006736                log_lladdr
 .text.mac_sequence_init
                0x000000000000677a        0xa build/sky/obj/mac-sequence.o
                0x000000000000677a                mac_sequence_init
 .text.mac_sequence_set_dsn
                0x0000000000006784       0x18 build/sky/obj/mac-sequence.o
                0x0000000000006784                mac_sequence_set_dsn
 .text.mac_sequence_is_duplicate
                0x000000000000679c       0x84 build/sky/obj/mac-sequence.o
                0x000000000000679c                mac_sequence_is_duplicate
 .text.mac_sequence_register_seqno
                0x0000000000006820       0x90 build/sky/obj/mac-sequence.o
                0x0000000000006820                mac_sequence_register_seqno
 .text.mac_call_sent_callback
                0x00000000000068b0       0x14 build/sky/obj/mac.o
                0x00000000000068b0                mac_call_sent_callback
 .text.memb_init
                0x00000000000068c4       0x36 build/sky/obj/memb.o
                0x00000000000068c4                memb_init
 .text.memb_alloc
                0x00000000000068fa       0x3e build/sky/obj/memb.o
                0x00000000000068fa                memb_alloc
 .text.memb_free
                0x0000000000006938       0x32 build/sky/obj/memb.o
                0x0000000000006938                memb_free
 .text.memb_inmemb
                0x000000000000696a       0x2a build/sky/obj/memb.o
                0x000000000000696a                memb_inmemb
 .text.memb_numfree
                0x0000000000006994       0x26 build/sky/obj/memb.o
                0x0000000000006994                memb_numfree
 .text.msp430_init_dco
                0x00000000000069ba       0x82 build/sky/obj/msp430.o
                0x00000000000069ba                msp430_init_dco
 .text.msp430_add_lpm_req
                0x0000000000006a3c        0xc build/sky/obj/msp430.o
                0x0000000000006a3c                msp430_add_lpm_req
 .text.msp430_cpu_init
                0x0000000000006a48       0x2a build/sky/obj/msp430.o
                0x0000000000006a48                msp430_cpu_init
 .text.splhigh_
                0x0000000000006a72        0xa build/sky/obj/msp430.o
                0x0000000000006a72                splhigh_
 .text.msp430_sync_dco
                0x0000000000006a7c       0x6c build/sky/obj/msp430.o
                0x0000000000006a7c                msp430_sync_dco
 .text.item_from_index
                0x0000000000006ae8       0x2a build/sky/obj/nbr-table.o
 .text.index_from_key
                0x0000000000006b12       0x26 build/sky/obj/nbr-table.o
 .text.index_from_item
                0x0000000000006b38       0x1e build/sky/obj/nbr-table.o
 .text.nbr_set_bit
                0x0000000000006b56       0x58 build/sky/obj/nbr-table.o
 .text.index_from_lladdr
                0x0000000000006bae       0x42 build/sky/obj/nbr-table.o
 .text.nbr_get_bit.constprop.1
                0x0000000000006bf0       0x2e build/sky/obj/nbr-table.o
 .text.remove_key
                0x0000000000006c1e       0x84 build/sky/obj/nbr-table.o
 .text.nbr_table_is_registered
                0x0000000000006ca2       0x22 build/sky/obj/nbr-table.o
                0x0000000000006ca2                nbr_table_is_registered
 .text.nbr_table_register
                0x0000000000006cc4       0x40 build/sky/obj/nbr-table.o
                0x0000000000006cc4                nbr_table_register
 .text.nbr_table_next
                0x0000000000006d04       0x54 build/sky/obj/nbr-table.o
                0x0000000000006d04                nbr_table_next
 .text.nbr_table_head
                0x0000000000006d58       0x3a build/sky/obj/nbr-table.o
                0x0000000000006d58                nbr_table_head
 .text.nbr_table_get_from_lladdr
                0x0000000000006d92       0x2c build/sky/obj/nbr-table.o
                0x0000000000006d92                nbr_table_get_from_lladdr
 .text.entry_is_allowed
                0x0000000000006dbe       0xba build/sky/obj/nbr-table.o
 .text.nbr_table_add_lladdr
                0x0000000000006e78       0xd6 build/sky/obj/nbr-table.o
                0x0000000000006e78                nbr_table_add_lladdr
 .text.nbr_table_remove
                0x0000000000006f4e       0x32 build/sky/obj/nbr-table.o
                0x0000000000006f4e                nbr_table_remove
 .text.nbr_table_lock
                0x0000000000006f80       0x10 build/sky/obj/nbr-table.o
                0x0000000000006f80                nbr_table_lock
 .text.nbr_table_unlock
                0x0000000000006f90       0x10 build/sky/obj/nbr-table.o
                0x0000000000006f90                nbr_table_unlock
 .text.nbr_table_get_lladdr
                0x0000000000006fa0       0x22 build/sky/obj/nbr-table.o
                0x0000000000006fa0                nbr_table_get_lladdr
 .text.netstack_process_ip_callback
                0x0000000000006fc2       0x4e build/sky/obj/netstack.o
                0x0000000000006fc2                netstack_process_ip_callback
 .text.netstack_init
                0x0000000000007010        0xe build/sky/obj/netstack.o
                0x0000000000007010                netstack_init
 .text.node_id_init
                0x000000000000701e       0x14 build/sky/obj/node-id.o
                0x000000000000701e                node_id_init
 .text.packetbuf_hdrreduce
                0x0000000000007032       0x1a build/sky/obj/packetbuf.o
                0x0000000000007032                packetbuf_hdrreduce
 .text.packetbuf_set_datalen
                0x000000000000704c        0x6 build/sky/obj/packetbuf.o
                0x000000000000704c                packetbuf_set_datalen
 .text.packetbuf_hdrptr
                0x0000000000007052        0x6 build/sky/obj/packetbuf.o
                0x0000000000007052                packetbuf_hdrptr
 .text.packetbuf_datalen
                0x0000000000007058        0x6 build/sky/obj/packetbuf.o
                0x0000000000007058                packetbuf_datalen
 .text.packetbuf_hdrlen
                0x000000000000705e        0xa build/sky/obj/packetbuf.o
                0x000000000000705e                packetbuf_hdrlen
 .text.packetbuf_dataptr
                0x0000000000007068        0xc build/sky/obj/packetbuf.o
                0x0000000000007068                packetbuf_dataptr
 .text.packetbuf_copyto
                0x0000000000007074       0x46 build/sky/obj/packetbuf.o
                0x0000000000007074                packetbuf_copyto
 .text.packetbuf_totlen
                0x00000000000070ba        0xc build/sky/obj/packetbuf.o
                0x00000000000070ba                packetbuf_totlen
 .text.packetbuf_hdralloc
                0x00000000000070c6       0x3c build/sky/obj/packetbuf.o
                0x00000000000070c6                packetbuf_hdralloc
 .text.packetbuf_attr_clear
                0x0000000000007102       0x28 build/sky/obj/packetbuf.o
                0x0000000000007102                packetbuf_attr_clear
 .text.packetbuf_clear
                0x000000000000712a       0x12 build/sky/obj/packetbuf.o
                0x000000000000712a                packetbuf_clear
 .text.packetbuf_copyfrom
                0x000000000000713c       0x2e build/sky/obj/packetbuf.o
                0x000000000000713c                packetbuf_copyfrom
 .text.packetbuf_attr_copyto
                0x000000000000716a       0x22 build/sky/obj/packetbuf.o
                0x000000000000716a                packetbuf_attr_copyto
 .text.packetbuf_attr_copyfrom
                0x000000000000718c       0x24 build/sky/obj/packetbuf.o
                0x000000000000718c                packetbuf_attr_copyfrom
 .text.packetbuf_set_attr
                0x00000000000071b0        0xc build/sky/obj/packetbuf.o
                0x00000000000071b0                packetbuf_set_attr
 .text.packetbuf_attr
                0x00000000000071bc        0xa build/sky/obj/packetbuf.o
                0x00000000000071bc                packetbuf_attr
 .text.packetbuf_set_addr
                0x00000000000071c6       0x18 build/sky/obj/packetbuf.o
                0x00000000000071c6                packetbuf_set_addr
 .text.packetbuf_addr
                0x00000000000071de       0x12 build/sky/obj/packetbuf.o
                0x00000000000071de                packetbuf_addr
 .text.packetbuf_holds_broadcast
                0x00000000000071f0        0xe build/sky/obj/packetbuf.o
                0x00000000000071f0                packetbuf_holds_broadcast
 .text.platform_init_stage_one
                0x00000000000071fe       0x12 build/sky/obj/platform.o
                0x00000000000071fe                platform_init_stage_one
 .text.platform_init_stage_two
                0x0000000000007210       0x64 build/sky/obj/platform.o
                0x0000000000007210                platform_init_stage_two
 .text.platform_init_stage_three
                0x0000000000007274       0x7a build/sky/obj/platform.o
                0x0000000000007274                platform_init_stage_three
 .text.platform_idle
                0x00000000000072ee       0x54 build/sky/obj/platform.o
                0x00000000000072ee                platform_idle
 .text.call_process
                0x0000000000007342       0x46 build/sky/obj/process.o
 .text.exit_process
                0x0000000000007388       0x96 build/sky/obj/process.o
 .text.do_poll  0x000000000000741e       0x30 build/sky/obj/process.o
 .text.process_alloc_event
                0x000000000000744e        0xe build/sky/obj/process.o
                0x000000000000744e                process_alloc_event
 .text.process_init
                0x000000000000745c       0x18 build/sky/obj/process.o
                0x000000000000745c                process_init
 .text.process_run
                0x0000000000007474       0x92 build/sky/obj/process.o
                0x0000000000007474                process_run
 .text.process_nevents
                0x0000000000007506        0xe build/sky/obj/process.o
                0x0000000000007506                process_nevents
 .text.process_post
                0x0000000000007514       0x42 build/sky/obj/process.o
                0x0000000000007514                process_post
 .text.process_post_synch
                0x0000000000007556       0x12 build/sky/obj/process.o
                0x0000000000007556                process_post_synch
 .text.process_start
                0x0000000000007568       0x36 build/sky/obj/process.o
                0x0000000000007568                process_start
 .text.process_poll
                0x000000000000759e       0x18 build/sky/obj/process.o
                0x000000000000759e                process_poll
 .text.queuebuf_init
                0x00000000000075b6       0x12 build/sky/obj/queuebuf.o
                0x00000000000075b6                queuebuf_init
 .text.queuebuf_numfree
                0x00000000000075c8        0xa build/sky/obj/queuebuf.o
                0x00000000000075c8                queuebuf_numfree
 .text.queuebuf_new_from_packetbuf
                0x00000000000075d2       0x52 build/sky/obj/queuebuf.o
                0x00000000000075d2                queuebuf_new_from_packetbuf
 .text.queuebuf_update_attr_from_packetbuf
                0x0000000000007624       0x12 build/sky/obj/queuebuf.o
                0x0000000000007624                queuebuf_update_attr_from_packetbuf
 .text.queuebuf_free
                0x0000000000007636       0x2a build/sky/obj/queuebuf.o
                0x0000000000007636                queuebuf_free
 .text.queuebuf_to_packetbuf
                0x0000000000007660       0x32 build/sky/obj/queuebuf.o
                0x0000000000007660                queuebuf_to_packetbuf
 .text.random_init
                0x0000000000007692        0x6 build/sky/obj/random.o
                0x0000000000007692                random_init
 .text.random_rand
                0x0000000000007698        0x6 build/sky/obj/random.o
                0x0000000000007698                random_rand
 .text.print_local_addresses
                0x000000000000769e       0x8e build/sky/obj/rpl-border-router.o
                0x000000000000769e                print_local_addresses
 .text.set_prefix_64
                0x000000000000772c       0x16 build/sky/obj/rpl-border-router.o
                0x000000000000772c                set_prefix_64
 .text.rpl_border_router_init
                0x0000000000007742        0xc build/sky/obj/rpl-border-router.o
                0x0000000000007742                rpl_border_router_init
 .text.rpl_dag_root_set_prefix
                0x000000000000774e       0x62 build/sky/obj/rpl-dag-root.o
                0x000000000000774e                rpl_dag_root_set_prefix
 .text.rpl_dag_root_start
                0x00000000000077b0       0xda build/sky/obj/rpl-dag-root.o
                0x00000000000077b0                rpl_dag_root_start
 .text.rpl_dag_root_is_root
                0x000000000000788a       0x24 build/sky/obj/rpl-dag-root.o
                0x000000000000788a                rpl_dag_root_is_root
 .text.lollipop_greater_than
                0x00000000000078ae       0x3c build/sky/obj/rpl-dag.o
 .text.find_parent_any_dag_any_instance
                0x00000000000078ea       0x14 build/sky/obj/rpl-dag.o
 .text.rpl_set_preferred_parent
                0x00000000000078fe       0x30 build/sky/obj/rpl-dag.o
 .text.set_ip_from_prefix
                0x000000000000792e       0x38 build/sky/obj/rpl-dag.o
 .text.check_prefix
                0x0000000000007966       0x80 build/sky/obj/rpl-dag.o
 .text.rpl_dag_init
                0x00000000000079e6        0xe build/sky/obj/rpl-dag.o
                0x00000000000079e6                rpl_dag_init
 .text.rpl_get_parent
                0x00000000000079f4        0xc build/sky/obj/rpl-dag.o
                0x00000000000079f4                rpl_get_parent
 .text.rpl_rank_via_parent
                0x0000000000007a00       0x2a build/sky/obj/rpl-dag.o
                0x0000000000007a00                rpl_rank_via_parent
 .text.rpl_get_parent_lladdr
                0x0000000000007a2a        0xc build/sky/obj/rpl-dag.o
                0x0000000000007a2a                rpl_get_parent_lladdr
 .text.rpl_parent_get_ipaddr
                0x0000000000007a36       0x12 build/sky/obj/rpl-dag.o
                0x0000000000007a36                rpl_parent_get_ipaddr
 .text.rpl_get_parent_link_stats
                0x0000000000007a48        0xa build/sky/obj/rpl-dag.o
                0x0000000000007a48                rpl_get_parent_link_stats
 .text.rpl_parent_is_fresh
                0x0000000000007a52        0xa build/sky/obj/rpl-dag.o
                0x0000000000007a52                rpl_parent_is_fresh
 .text.best_parent
                0x0000000000007a5c       0x82 build/sky/obj/rpl-dag.o
 .text.rpl_parent_is_reachable
                0x0000000000007ade       0x4a build/sky/obj/rpl-dag.o
                0x0000000000007ade                rpl_parent_is_reachable
 .text.rpl_set_prefix
                0x0000000000007b28       0xa4 build/sky/obj/rpl-dag.o
                0x0000000000007b28                rpl_set_prefix
 .text.rpl_set_default_route
                0x0000000000007bcc       0x3e build/sky/obj/rpl-dag.o
                0x0000000000007bcc                rpl_set_default_route
 .text.rpl_alloc_instance
                0x0000000000007c0a       0x34 build/sky/obj/rpl-dag.o
                0x0000000000007c0a                rpl_alloc_instance
 .text.rpl_get_default_instance
                0x0000000000007c3e        0x6 build/sky/obj/rpl-dag.o
                0x0000000000007c3e                rpl_get_default_instance
 .text.rpl_add_parent
                0x0000000000007c44       0x3e build/sky/obj/rpl-dag.o
                0x0000000000007c44                rpl_add_parent
 .text.rpl_find_parent
                0x0000000000007c82       0x1a build/sky/obj/rpl-dag.o
                0x0000000000007c82                rpl_find_parent
 .text.rpl_find_parent_any_dag
                0x0000000000007c9c       0x22 build/sky/obj/rpl-dag.o
                0x0000000000007c9c                rpl_find_parent_any_dag
 .text.rpl_select_parent
                0x0000000000007cbe       0x74 build/sky/obj/rpl-dag.o
                0x0000000000007cbe                rpl_select_parent
 .text.rpl_select_dag
                0x0000000000007d32      0x18c build/sky/obj/rpl-dag.o
                0x0000000000007d32                rpl_select_dag
 .text.rpl_nullify_parent
                0x0000000000007ebe       0x60 build/sky/obj/rpl-dag.o
                0x0000000000007ebe                rpl_nullify_parent
 .text.rpl_remove_parent
                0x0000000000007f1e       0x16 build/sky/obj/rpl-dag.o
                0x0000000000007f1e                rpl_remove_parent
 .text.nbr_callback
                0x0000000000007f34        0x6 build/sky/obj/rpl-dag.o
 .text.remove_parents.constprop.3
                0x0000000000007f3a       0x30 build/sky/obj/rpl-dag.o
 .text.rpl_free_dag
                0x0000000000007f6a       0x42 build/sky/obj/rpl-dag.o
                0x0000000000007f6a                rpl_free_dag
 .text.rpl_move_parent
                0x0000000000007fac       0x68 build/sky/obj/rpl-dag.o
                0x0000000000007fac                rpl_move_parent
 .text.rpl_has_joined
                0x0000000000008014       0x30 build/sky/obj/rpl-dag.o
                0x0000000000008014                rpl_has_joined
 .text.rpl_has_downward_route
                0x0000000000008044       0x1c build/sky/obj/rpl-dag.o
                0x0000000000008044                rpl_has_downward_route
 .text.rpl_get_dag
                0x0000000000008060       0x86 build/sky/obj/rpl-dag.o
                0x0000000000008060                rpl_get_dag
 .text.rpl_get_any_dag
                0x00000000000080e6       0x16 build/sky/obj/rpl-dag.o
                0x00000000000080e6                rpl_get_any_dag
 .text.rpl_get_instance
                0x00000000000080fc       0x16 build/sky/obj/rpl-dag.o
                0x00000000000080fc                rpl_get_instance
 .text.rpl_alloc_dag
                0x0000000000008112       0x64 build/sky/obj/rpl-dag.o
                0x0000000000008112                rpl_alloc_dag
 .text.rpl_repair_root
                0x0000000000008176       0x4c build/sky/obj/rpl-dag.o
                0x0000000000008176                rpl_repair_root
 .text.rpl_find_of
                0x00000000000081c2       0x10 build/sky/obj/rpl-dag.o
                0x00000000000081c2                rpl_find_of
 .text.rpl_set_root
                0x00000000000081d2      0x15c build/sky/obj/rpl-dag.o
                0x00000000000081d2                rpl_set_root
 .text.rpl_join_instance
                0x000000000000832e      0x156 build/sky/obj/rpl-dag.o
                0x000000000000832e                rpl_join_instance
 .text.rpl_local_repair
                0x0000000000008484       0x9e build/sky/obj/rpl-dag.o
                0x0000000000008484                rpl_local_repair
 .text.rpl_process_parent_event
                0x0000000000008522       0xc2 build/sky/obj/rpl-dag.o
                0x0000000000008522                rpl_process_parent_event
 .text.rpl_recalculate_ranks
                0x00000000000085e4       0x44 build/sky/obj/rpl-dag.o
                0x00000000000085e4                rpl_recalculate_ranks
 .text.rpl_add_dag
                0x0000000000008628      0x114 build/sky/obj/rpl-dag.o
                0x0000000000008628                rpl_add_dag
 .text.rpl_process_dio
                0x000000000000873c      0x344 build/sky/obj/rpl-dag.o
                0x000000000000873c                rpl_process_dio
 .text.update_hbh_header
                0x0000000000008a80       0xaa build/sky/obj/rpl-ext-header.o
 .text.insert_hbh_header
                0x0000000000008b2a       0x80 build/sky/obj/rpl-ext-header.o
 .text.rpl_ext_header_hbh_update
                0x0000000000008baa       0xd8 build/sky/obj/rpl-ext-header.o
                0x0000000000008baa                rpl_ext_header_hbh_update
 .text.rpl_ext_header_srh_get_next_hop
                0x0000000000008c82        0x4 build/sky/obj/rpl-ext-header.o
                0x0000000000008c82                rpl_ext_header_srh_get_next_hop
 .text.rpl_ext_header_srh_update
                0x0000000000008c86        0x4 build/sky/obj/rpl-ext-header.o
                0x0000000000008c86                rpl_ext_header_srh_update
 .text.rpl_ext_header_remove
                0x0000000000008c8a       0xcc build/sky/obj/rpl-ext-header.o
                0x0000000000008c8a                rpl_ext_header_remove
 .text.rpl_ext_header_update
                0x0000000000008d56       0x60 build/sky/obj/rpl-ext-header.o
                0x0000000000008d56                rpl_ext_header_update
 .text.get32    0x0000000000008db6       0x46 build/sky/obj/rpl-icmp6.o
 .text.set32    0x0000000000008dfc       0x2a build/sky/obj/rpl-icmp6.o
 .text.get16    0x0000000000008e26        0xe build/sky/obj/rpl-icmp6.o
 .text.set16    0x0000000000008e34       0x10 build/sky/obj/rpl-icmp6.o
 .text.dao_ack_input
                0x0000000000008e44        0x6 build/sky/obj/rpl-icmp6.o
 .text.dio_input
                0x0000000000008e4a      0x2aa build/sky/obj/rpl-icmp6.o
 .text.rpl_icmp6_update_nbr_table
                0x00000000000090f4       0x36 build/sky/obj/rpl-icmp6.o
                0x00000000000090f4                rpl_icmp6_update_nbr_table
 .text.dao_input
                0x000000000000912a      0x36a build/sky/obj/rpl-icmp6.o
 .text.dis_output
                0x0000000000009494       0x50 build/sky/obj/rpl-icmp6.o
                0x0000000000009494                dis_output
 .text.dio_output
                0x00000000000094e4      0x272 build/sky/obj/rpl-icmp6.o
                0x00000000000094e4                dio_output
 .text.dis_input
                0x0000000000009756       0x3a build/sky/obj/rpl-icmp6.o
 .text.dao_output_target
                0x0000000000009790      0x110 build/sky/obj/rpl-icmp6.o
                0x0000000000009790                dao_output_target
 .text.dao_output
                0x00000000000098a0      0x118 build/sky/obj/rpl-icmp6.o
                0x00000000000098a0                dao_output
 .text.rpl_icmp6_register_handlers
                0x00000000000099b8       0x22 build/sky/obj/rpl-icmp6.o
                0x00000000000099b8                rpl_icmp6_register_handlers
 .text.reset    0x00000000000099da        0x2 build/sky/obj/rpl-mrhof.o
 .text.update_metric_container
                0x00000000000099dc        0x6 build/sky/obj/rpl-mrhof.o
 .text.parent_link_metric
                0x00000000000099e2       0x12 build/sky/obj/rpl-mrhof.o
 .text.parent_has_usable_link
                0x00000000000099f4       0x14 build/sky/obj/rpl-mrhof.o
 .text.best_dag
                0x0000000000009a08       0x2e build/sky/obj/rpl-mrhof.o
 .text.parent_path_cost
                0x0000000000009a36       0x44 build/sky/obj/rpl-mrhof.o
 .text.parent_is_acceptable
                0x0000000000009a7a       0x2e build/sky/obj/rpl-mrhof.o
 .text.rank_via_parent
                0x0000000000009aa8       0x56 build/sky/obj/rpl-mrhof.o
 .text.best_parent
                0x0000000000009afe       0x82 build/sky/obj/rpl-mrhof.o
 .text.get_rank
                0x0000000000009b80       0x26 build/sky/obj/rpl-nbr-policy.o
 .text.rpl_nbr_gc_get_worst
                0x0000000000009ba6       0x28 build/sky/obj/rpl-nbr-policy.o
                0x0000000000009ba6                rpl_nbr_gc_get_worst
 .text.rpl_nbr_policy_get_free_nexthop_neighbors
                0x0000000000009bce        0xe build/sky/obj/rpl-nbr-policy.o
                0x0000000000009bce                rpl_nbr_policy_get_free_nexthop_neighbors
 .text.rpl_nbr_can_accept_new
                0x0000000000009bdc       0x68 build/sky/obj/rpl-nbr-policy.o
                0x0000000000009bdc                rpl_nbr_can_accept_new
 .text.new_dio_interval
                0x0000000000009c44       0x92 build/sky/obj/rpl-timers.o
 .text.handle_unicast_dio_timer
                0x0000000000009cd6       0x1c build/sky/obj/rpl-timers.o
 .text.set_dao_lifetime_timer
                0x0000000000009cf2       0x94 build/sky/obj/rpl-timers.o
 .text.handle_periodic_timer
                0x0000000000009d86       0x5e build/sky/obj/rpl-timers.o
 .text.schedule_dao
                0x0000000000009de4       0x82 build/sky/obj/rpl-timers.o
 .text.handle_dio_timer
                0x0000000000009e66       0x88 build/sky/obj/rpl-timers.o
 .text.handle_dao_timer
                0x0000000000009eee       0x64 build/sky/obj/rpl-timers.o
 .text.rpl_reset_periodic_timer
                0x0000000000009f52       0x54 build/sky/obj/rpl-timers.o
                0x0000000000009f52                rpl_reset_periodic_timer
 .text.rpl_reset_dio_timer
                0x0000000000009fa6       0x18 build/sky/obj/rpl-timers.o
                0x0000000000009fa6                rpl_reset_dio_timer
 .text.rpl_schedule_dao
                0x0000000000009fbe        0xc build/sky/obj/rpl-timers.o
                0x0000000000009fbe                rpl_schedule_dao
 .text.rpl_schedule_unicast_dio_immediately
                0x0000000000009fca       0x16 build/sky/obj/rpl-timers.o
                0x0000000000009fca                rpl_schedule_unicast_dio_immediately
 .text.get_probing_target
                0x0000000000009fe0       0xf8 build/sky/obj/rpl-timers.o
                0x0000000000009fe0                get_probing_target
 .text.rpl_schedule_probing
                0x000000000000a0d8       0x3c build/sky/obj/rpl-timers.o
                0x000000000000a0d8                rpl_schedule_probing
 .text.handle_probing_timer
                0x000000000000a114       0x9e build/sky/obj/rpl-timers.o
 .text.rpl_schedule_probing_now
                0x000000000000a1b2       0x26 build/sky/obj/rpl-timers.o
                0x000000000000a1b2                rpl_schedule_probing_now
 .text.leave_network
                0x000000000000a1d8        0x2 build/sky/obj/rpl.o
 .text.rpl_is_in_leaf_mode
                0x000000000000a1da        0x4 build/sky/obj/rpl.o
                0x000000000000a1da                rpl_is_in_leaf_mode
 .text.drop_route
                0x000000000000a1de       0x1a build/sky/obj/rpl.o
 .text.global_repair
                0x000000000000a1f8       0x1a build/sky/obj/rpl.o
 .text.get_root_ipaddr
                0x000000000000a212       0x26 build/sky/obj/rpl.o
 .text.local_repair
                0x000000000000a238       0x12 build/sky/obj/rpl.o
 .text.get_sr_node_ipaddr
                0x000000000000a24a       0x34 build/sky/obj/rpl.o
 .text.init     0x000000000000a27e       0x44 build/sky/obj/rpl.o
 .text.rpl_ipv6_neighbor_callback
                0x000000000000a2c2       0x1e build/sky/obj/rpl.o
                0x000000000000a2c2                rpl_ipv6_neighbor_callback
 .text.rpl_link_callback
                0x000000000000a2e0       0x5a build/sky/obj/rpl.o
                0x000000000000a2e0                rpl_link_callback
 .text.rpl_get_mode
                0x000000000000a33a        0x6 build/sky/obj/rpl.o
                0x000000000000a33a                rpl_get_mode
 .text.rpl_purge_routes
                0x000000000000a340       0x94 build/sky/obj/rpl.o
                0x000000000000a340                rpl_purge_routes
 .text.rpl_remove_routes
                0x000000000000a3d4       0x22 build/sky/obj/rpl.o
                0x000000000000a3d4                rpl_remove_routes
 .text.rpl_remove_routes_by_nexthop
                0x000000000000a3f6       0x46 build/sky/obj/rpl.o
                0x000000000000a3f6                rpl_remove_routes_by_nexthop
 .text.rpl_add_route
                0x000000000000a43c       0x5c build/sky/obj/rpl.o
                0x000000000000a43c                rpl_add_route
 .text.rpl_purge_dags
                0x000000000000a498       0x70 build/sky/obj/rpl.o
                0x000000000000a498                rpl_purge_dags
 .text.process_thread_hello_world_process
                0x000000000000a508       0xb8 build/sky/obj/rpl_node.o
 .text.timera0  0x000000000000a5c0       0x2e build/sky/obj/rtimer-arch.o
                0x000000000000a5c0                __isr_6
                0x000000000000a5c0                timera0
 .text.rtimer_arch_init
                0x000000000000a5ee        0xe build/sky/obj/rtimer-arch.o
                0x000000000000a5ee                rtimer_arch_init
 .text.rtimer_arch_now
                0x000000000000a5fc        0xe build/sky/obj/rtimer-arch.o
                0x000000000000a5fc                rtimer_arch_now
 .text.rtimer_arch_schedule
                0x000000000000a60a        0x6 build/sky/obj/rtimer-arch.o
                0x000000000000a60a                rtimer_arch_schedule
 .text.rtimer_init
                0x000000000000a610        0x6 build/sky/obj/rtimer.o
                0x000000000000a610                rtimer_init
 .text.rtimer_run_next
                0x000000000000a616       0x26 build/sky/obj/rtimer.o
                0x000000000000a616                rtimer_run_next
 .text.process_thread_sensors_process
                0x000000000000a63c       0xc2 build/sky/obj/sensors.o
 .text.sensors_changed
                0x000000000000a6fe       0x2a build/sky/obj/sensors.o
                0x000000000000a6fe                sensors_changed
 .text.clear_fragments
                0x000000000000a728       0x40 build/sky/obj/sicslowpan.o
 .text.addr_context_lookup_by_number
                0x000000000000a768       0x16 build/sky/obj/sicslowpan.o
 .text.sicslowpan_init
                0x000000000000a77e       0x18 build/sky/obj/sicslowpan.o
                0x000000000000a77e                sicslowpan_init
 .text.set_packet_attrs
                0x000000000000a796       0x66 build/sky/obj/sicslowpan.o
 .text.compress_addr_64
                0x000000000000a7fc       0xae build/sky/obj/sicslowpan.o
 .text.addr_context_lookup_by_prefix
                0x000000000000a8aa       0x20 build/sky/obj/sicslowpan.o
 .text.send_packet
                0x000000000000a8ca       0x1a build/sky/obj/sicslowpan.o
 .text.fragment_copy_payload_and_send
                0x000000000000a8e4       0x60 build/sky/obj/sicslowpan.o
 .text.output   0x000000000000a944      0x7c8 build/sky/obj/sicslowpan.o
 .text.packet_sent
                0x000000000000b10c       0x56 build/sky/obj/sicslowpan.o
 .text.store_fragment
                0x000000000000b162       0xb8 build/sky/obj/sicslowpan.o
 .text.add_fragment
                0x000000000000b21a      0x1fc build/sky/obj/sicslowpan.o
 .text.uncompress_addr
                0x000000000000b416       0xb4 build/sky/obj/sicslowpan.o
 .text.input    0x000000000000b4ca      0xa10 build/sky/obj/sicslowpan.o
 .text.output   0x000000000000beda       0x1c build/sky/obj/slip-bridge.o
 .text.init     0x000000000000bef6       0x18 build/sky/obj/slip-bridge.o
 .text.slip_input_callback
                0x000000000000bf0e       0xb2 build/sky/obj/slip-bridge.o
 .text.request_prefix
                0x000000000000bfc0       0x20 build/sky/obj/slip-bridge.o
                0x000000000000bfc0                request_prefix
 .text.process_thread_slip_process
                0x000000000000bfe0      0x1c2 build/sky/obj/slip.o
 .text.slip_set_input_callback
                0x000000000000c1a2        0x6 build/sky/obj/slip.o
                0x000000000000c1a2                slip_set_input_callback
 .text.slip_write
                0x000000000000c1a8       0x58 build/sky/obj/slip.o
                0x000000000000c1a8                slip_write
 .text.slip_send
                0x000000000000c200        0xe build/sky/obj/slip.o
                0x000000000000c200                slip_send
 .text.slip_input_byte
                0x000000000000c20e       0x96 build/sky/obj/slip.o
                0x000000000000c20e                slip_input_byte
 .text.slip_arch_writeb
                0x000000000000c2a4        0x6 build/sky/obj/slip_uart1.o
                0x000000000000c2a4                slip_arch_writeb
 .text.slip_arch_init
                0x000000000000c2aa        0xa build/sky/obj/slip_uart1.o
                0x000000000000c2aa                slip_arch_init
 .text.spi_init
                0x000000000000c2b4       0x30 build/sky/obj/spi-legacy.o
                0x000000000000c2b4                spi_init
 .text.stack_check_init
                0x000000000000c2e4       0x2e build/sky/obj/stack-check.o
                0x000000000000c2e4                stack_check_init
 .text.stack_check_get_usage
                0x000000000000c312       0x54 build/sky/obj/stack-check.o
                0x000000000000c312                stack_check_get_usage
 .text.process_thread_stack_check_process
                0x000000000000c366       0xea build/sky/obj/stack-check.o
 .text.stimer_set
                0x000000000000c450       0x1c build/sky/obj/stimer.o
                0x000000000000c450                stimer_set
 .text.stimer_expired
                0x000000000000c46c       0x30 build/sky/obj/stimer.o
                0x000000000000c46c                stimer_expired
 .text.tcpip_output
                0x000000000000c49c       0x22 build/sky/obj/tcpip.o
                0x000000000000c49c                tcpip_output
 .text.tcpip_input
                0x000000000000c4be       0x1e build/sky/obj/tcpip.o
                0x000000000000c4be                tcpip_input
 .text.tcpip_ipv6_output
                0x000000000000c4dc      0x13c build/sky/obj/tcpip.o
                0x000000000000c4dc                tcpip_ipv6_output
 .text.packet_input.part.3
                0x000000000000c618       0x12 build/sky/obj/tcpip.o
 .text.process_thread_tcpip_process
                0x000000000000c62a       0xd0 build/sky/obj/tcpip.o
 .text.tcpip_uipcall
                0x000000000000c6fa       0x2a build/sky/obj/tcpip.o
                0x000000000000c6fa                tcpip_uipcall
 .text.timer_set
                0x000000000000c724       0x1c build/sky/obj/timer.o
                0x000000000000c724                timer_set
 .text.timer_expired
                0x000000000000c740       0x2a build/sky/obj/timer.o
                0x000000000000c740                timer_expired
 .text.timer_reset
                0x000000000000c76a       0x1c build/sky/obj/timer.o
                0x000000000000c76a                timer_reset
 .text.putchar  0x000000000000c786       0x3c build/sky/obj/uart1-putchar.o
                0x000000000000c786                putchar
 .text.handle_rxdma_timer
                0x000000000000c7c2       0x3a build/sky/obj/uart1.o
 .text.uart1_active
                0x000000000000c7fc       0x18 build/sky/obj/uart1.o
                0x000000000000c7fc                uart1_active
 .text.uart1_set_input
                0x000000000000c814       0x20 build/sky/obj/uart1.o
                0x000000000000c814                uart1_set_input
 .text.uart1_writeb
                0x000000000000c834       0x18 build/sky/obj/uart1.o
                0x000000000000c834                uart1_writeb
 .text.uart1_init
                0x000000000000c84c       0xf4 build/sky/obj/uart1.o
                0x000000000000c84c                uart1_init
 .text.uip_ds6_nbr_rm
                0x000000000000c940       0x1e build/sky/obj/uip-ds6-nbr.o
                0x000000000000c940                uip_ds6_nbr_rm
 .text.uip_ds6_neighbors_init
                0x000000000000c95e       0x12 build/sky/obj/uip-ds6-nbr.o
                0x000000000000c95e                uip_ds6_neighbors_init
 .text.uip_ds6_nbr_add
                0x000000000000c970       0x3e build/sky/obj/uip-ds6-nbr.o
                0x000000000000c970                uip_ds6_nbr_add
 .text.uip_ds6_nbr_get_ll
                0x000000000000c9ae        0xc build/sky/obj/uip-ds6-nbr.o
                0x000000000000c9ae                uip_ds6_nbr_get_ll
 .text.uip_ds6_nbr_head
                0x000000000000c9ba        0xa build/sky/obj/uip-ds6-nbr.o
                0x000000000000c9ba                uip_ds6_nbr_head
 .text.uip_ds6_nbr_next
                0x000000000000c9c4        0xc build/sky/obj/uip-ds6-nbr.o
                0x000000000000c9c4                uip_ds6_nbr_next
 .text.uip_ds6_nbr_lookup
                0x000000000000c9d0       0x3a build/sky/obj/uip-ds6-nbr.o
                0x000000000000c9d0                uip_ds6_nbr_lookup
 .text.uip_ds6_nbr_ll_lookup
                0x000000000000ca0a        0xc build/sky/obj/uip-ds6-nbr.o
                0x000000000000ca0a                uip_ds6_nbr_ll_lookup
 .text.uip_ds6_nbr_update_ll
                0x000000000000ca16       0x76 build/sky/obj/uip-ds6-nbr.o
                0x000000000000ca16                uip_ds6_nbr_update_ll
 .text.uip_ds6_nbr_ipaddr_from_lladdr
                0x000000000000ca8c        0x6 build/sky/obj/uip-ds6-nbr.o
                0x000000000000ca8c                uip_ds6_nbr_ipaddr_from_lladdr
 .text.uip_ds6_nbr_lladdr_from_ipaddr
                0x000000000000ca92       0x12 build/sky/obj/uip-ds6-nbr.o
                0x000000000000ca92                uip_ds6_nbr_lladdr_from_ipaddr
 .text.uip_ds6_link_callback
                0x000000000000caa4        0x2 build/sky/obj/uip-ds6-nbr.o
                0x000000000000caa4                uip_ds6_link_callback
 .text.call_route_callback
                0x000000000000caa6       0x4c build/sky/obj/uip-ds6-route.o
 .text.uip_ds6_route_init
                0x000000000000caf2       0x36 build/sky/obj/uip-ds6-route.o
                0x000000000000caf2                uip_ds6_route_init
 .text.uip_ds6_route_count_nexthop_neighbors
                0x000000000000cb28       0x24 build/sky/obj/uip-ds6-route.o
                0x000000000000cb28                uip_ds6_route_count_nexthop_neighbors
 .text.uip_ds6_route_nexthop
                0x000000000000cb4c       0x1a build/sky/obj/uip-ds6-route.o
                0x000000000000cb4c                uip_ds6_route_nexthop
 .text.uip_ds6_route_head
                0x000000000000cb66        0xa build/sky/obj/uip-ds6-route.o
                0x000000000000cb66                uip_ds6_route_head
 .text.uip_ds6_route_next
                0x000000000000cb70        0xe build/sky/obj/uip-ds6-route.o
                0x000000000000cb70                uip_ds6_route_next
 .text.uip_ds6_route_is_nexthop
                0x000000000000cb7e       0x22 build/sky/obj/uip-ds6-route.o
                0x000000000000cb7e                uip_ds6_route_is_nexthop
 .text.uip_ds6_route_lookup
                0x000000000000cba0       0x94 build/sky/obj/uip-ds6-route.o
                0x000000000000cba0                uip_ds6_route_lookup
 .text.uip_ds6_route_rm
                0x000000000000cc34       0x9a build/sky/obj/uip-ds6-route.o
                0x000000000000cc34                uip_ds6_route_rm
 .text.rm_routelist
                0x000000000000ccce       0x34 build/sky/obj/uip-ds6-route.o
 .text.rm_routelist_callback
                0x000000000000cd02        0x6 build/sky/obj/uip-ds6-route.o
 .text.uip_ds6_route_add
                0x000000000000cd08      0x118 build/sky/obj/uip-ds6-route.o
                0x000000000000cd08                uip_ds6_route_add
 .text.uip_ds6_defrt_rm
                0x000000000000ce20       0x48 build/sky/obj/uip-ds6-route.o
                0x000000000000ce20                uip_ds6_defrt_rm
 .text.uip_ds6_defrt_lookup
                0x000000000000ce68       0x40 build/sky/obj/uip-ds6-route.o
                0x000000000000ce68                uip_ds6_defrt_lookup
 .text.uip_ds6_defrt_add
                0x000000000000cea8       0x7c build/sky/obj/uip-ds6-route.o
                0x000000000000cea8                uip_ds6_defrt_add
 .text.uip_ds6_defrt_choose
                0x000000000000cf24       0x3a build/sky/obj/uip-ds6-route.o
                0x000000000000cf24                uip_ds6_defrt_choose
 .text.uip_ds6_defrt_periodic
                0x000000000000cf5e       0x38 build/sky/obj/uip-ds6-route.o
                0x000000000000cf5e                uip_ds6_defrt_periodic
 .text.uip_ds6_default_prefix
                0x000000000000cf96        0x6 build/sky/obj/uip-ds6.o
                0x000000000000cf96                uip_ds6_default_prefix
 .text.uip_ds6_list_loop
                0x000000000000cf9c       0x92 build/sky/obj/uip-ds6.o
                0x000000000000cf9c                uip_ds6_list_loop
 .text.uip_ds6_prefix_add
                0x000000000000d02e       0x80 build/sky/obj/uip-ds6.o
                0x000000000000d02e                uip_ds6_prefix_add
 .text.uip_ds6_is_addr_onlink
                0x000000000000d0ae       0x54 build/sky/obj/uip-ds6.o
                0x000000000000d0ae                uip_ds6_is_addr_onlink
 .text.uip_ds6_addr_lookup
                0x000000000000d102       0x2a build/sky/obj/uip-ds6.o
                0x000000000000d102                uip_ds6_addr_lookup
 .text.uip_ds6_get_link_local
                0x000000000000d12c       0x3e build/sky/obj/uip-ds6.o
                0x000000000000d12c                uip_ds6_get_link_local
 .text.uip_ds6_maddr_add
                0x000000000000d16a       0x4c build/sky/obj/uip-ds6.o
                0x000000000000d16a                uip_ds6_maddr_add
 .text.uip_ds6_addr_add
                0x000000000000d1b6       0xc4 build/sky/obj/uip-ds6.o
                0x000000000000d1b6                uip_ds6_addr_add
 .text.uip_ds6_maddr_rm
                0x000000000000d27a        0xa build/sky/obj/uip-ds6.o
                0x000000000000d27a                uip_ds6_maddr_rm
 .text.uip_ds6_maddr_lookup
                0x000000000000d284       0x2a build/sky/obj/uip-ds6.o
                0x000000000000d284                uip_ds6_maddr_lookup
 .text.uip_ds6_addr_rm
                0x000000000000d2ae       0x54 build/sky/obj/uip-ds6.o
                0x000000000000d2ae                uip_ds6_addr_rm
 .text.uip_ds6_periodic
                0x000000000000d302       0x46 build/sky/obj/uip-ds6.o
                0x000000000000d302                uip_ds6_periodic
 .text.uip_ds6_set_addr_iid
                0x000000000000d348       0x14 build/sky/obj/uip-ds6.o
                0x000000000000d348                uip_ds6_set_addr_iid
 .text.uip_ds6_set_lladdr_from_iid
                0x000000000000d35c       0x14 build/sky/obj/uip-ds6.o
                0x000000000000d35c                uip_ds6_set_lladdr_from_iid
 .text.get_match_length
                0x000000000000d370       0x44 build/sky/obj/uip-ds6.o
                0x000000000000d370                get_match_length
 .text.uip_ds6_select_src
                0x000000000000d3b4       0xaa build/sky/obj/uip-ds6.o
                0x000000000000d3b4                uip_ds6_select_src
 .text.uip_ds6_compute_reachable_time
                0x000000000000d45e       0x3e build/sky/obj/uip-ds6.o
                0x000000000000d45e                uip_ds6_compute_reachable_time
 .text.uip_ds6_init
                0x000000000000d49c      0x164 build/sky/obj/uip-ds6.o
                0x000000000000d49c                uip_ds6_init
 .text.echo_reply_input
                0x000000000000d600       0x68 build/sky/obj/uip-icmp6.o
 .text.echo_request_input
                0x000000000000d668       0x86 build/sky/obj/uip-icmp6.o
 .text.uip_icmp6_input
                0x000000000000d6ee       0x48 build/sky/obj/uip-icmp6.o
                0x000000000000d6ee                uip_icmp6_input
 .text.uip_icmp6_register_input_handler
                0x000000000000d736        0xc build/sky/obj/uip-icmp6.o
                0x000000000000d736                uip_icmp6_register_input_handler
 .text.uip_icmp6_error_output
                0x000000000000d742      0x146 build/sky/obj/uip-icmp6.o
                0x000000000000d742                uip_icmp6_error_output
 .text.uip_icmp6_send
                0x000000000000d888       0x8e build/sky/obj/uip-icmp6.o
                0x000000000000d888                uip_icmp6_send
 .text.uip_icmp6_init
                0x000000000000d916       0x12 build/sky/obj/uip-icmp6.o
                0x000000000000d916                uip_icmp6_init
 .text.ns_input
                0x000000000000d928      0x29a build/sky/obj/uip-nd6.o
 .text.uip_nd6_init
                0x000000000000dbc2        0xa build/sky/obj/uip-nd6.o
                0x000000000000dbc2                uip_nd6_init
 .text.chksum   0x000000000000dbcc       0x32 build/sky/obj/uip6.o
 .text.upper_layer_chksum
                0x000000000000dbfe       0x58 build/sky/obj/uip6.o
 .text.ext_hdr_options_process
                0x000000000000dc56       0xa4 build/sky/obj/uip6.o
 .text.uip_check_mtu
                0x000000000000dcfa       0x1e build/sky/obj/uip6.o
 .text.uip_update_ttl
                0x000000000000dd18       0x24 build/sky/obj/uip6.o
 .text.uip_icmp6chksum
                0x000000000000dd3c        0xa build/sky/obj/uip6.o
                0x000000000000dd3c                uip_icmp6chksum
 .text.uip_udpchksum
                0x000000000000dd46        0xa build/sky/obj/uip6.o
                0x000000000000dd46                uip_udpchksum
 .text.uip_init
                0x000000000000dd50       0x3c build/sky/obj/uip6.o
                0x000000000000dd50                uip_init
 .text.uip_remove_ext_hdr
                0x000000000000dd8c       0x5e build/sky/obj/uip6.o
                0x000000000000dd8c                uip_remove_ext_hdr
 .text.uip_process
                0x000000000000ddea      0x4be build/sky/obj/uip6.o
                0x000000000000ddea                uip_process
 .text.uip_htonl
                0x000000000000e2a8       0x2e build/sky/obj/uip6.o
                0x000000000000e2a8                uip_htonl
 .text.uipbuf_add_ext_hdr
                0x000000000000e2d6       0x1c build/sky/obj/uipbuf.o
                0x000000000000e2d6                uipbuf_add_ext_hdr
 .text.uipbuf_set_len
                0x000000000000e2f2       0x12 build/sky/obj/uipbuf.o
                0x000000000000e2f2                uipbuf_set_len
 .text.uipbuf_set_len_field
                0x000000000000e304        0xe build/sky/obj/uipbuf.o
                0x000000000000e304                uipbuf_set_len_field
 .text.uipbuf_get_len_field
                0x000000000000e312        0xe build/sky/obj/uipbuf.o
                0x000000000000e312                uipbuf_get_len_field
 .text.uipbuf_get_next_header
                0x000000000000e320       0x6a build/sky/obj/uipbuf.o
                0x000000000000e320                uipbuf_get_next_header
 .text.uipbuf_get_last_header
                0x000000000000e38a       0x3e build/sky/obj/uipbuf.o
                0x000000000000e38a                uipbuf_get_last_header
 .text.uipbuf_get_attr
                0x000000000000e3c8       0x12 build/sky/obj/uipbuf.o
                0x000000000000e3c8                uipbuf_get_attr
 .text.uipbuf_set_attr
                0x000000000000e3da       0x14 build/sky/obj/uipbuf.o
                0x000000000000e3da                uipbuf_set_attr
 .text.uipbuf_clear_attr
                0x000000000000e3ee       0x12 build/sky/obj/uipbuf.o
                0x000000000000e3ee                uipbuf_clear_attr
 .text.uipbuf_clear
                0x000000000000e400       0x12 build/sky/obj/uipbuf.o
                0x000000000000e400                uipbuf_clear
 .text.uipbuf_init
                0x000000000000e412       0x1a build/sky/obj/uipbuf.o
                0x000000000000e412                uipbuf_init
 .text.uiplib_ipaddr_snprint
                0x000000000000e42c      0x12c build/sky/obj/uiplib.o
                0x000000000000e42c                uiplib_ipaddr_snprint
 .text.watchdog_interrupt
                0x000000000000e558        0x6 build/sky/obj/watchdog.o
                0x000000000000e558                __isr_10
                0x000000000000e558                watchdog_interrupt
 .text.watchdog_start
                0x000000000000e55e       0x14 build/sky/obj/watchdog.o
                0x000000000000e55e                watchdog_start
 .text.watchdog_periodic
                0x000000000000e572       0x12 build/sky/obj/watchdog.o
                0x000000000000e572                watchdog_periodic
 .text.watchdog_stop
                0x000000000000e584       0x16 build/sky/obj/watchdog.o
                0x000000000000e584                watchdog_stop
 .text.watchdog_init
                0x000000000000e59a       0x12 build/sky/obj/watchdog.o
                0x000000000000e59a                watchdog_init
 .text.xmem_init
                0x000000000000e5ac       0x3c build/sky/obj/xmem.o
                0x000000000000e5ac                xmem_init
 .text.printf   0x000000000000e5e8       0x10 /home/ape/libs/mspgcc-4.7.3/bin/../lib/gcc/msp430/4.7.3/../../../../msp430/lib/mmpy-16/libc.a(printf.o)
                0x000000000000e5e8                printf
 .text.append   0x000000000000e5f8       0x22 /home/ape/libs/mspgcc-4.7.3/bin/../lib/gcc/msp430/4.7.3/../../../../msp430/lib/mmpy-16/libc.a(sprintf.o)
 .text.call_vuprintf
                0x000000000000e61a       0x3a /home/ape/libs/mspgcc-4.7.3/bin/../lib/gcc/msp430/4.7.3/../../../../msp430/lib/mmpy-16/libc.a(sprintf.o)
 .text.snprintf
                0x000000000000e654       0x1a /home/ape/libs/mspgcc-4.7.3/bin/../lib/gcc/msp430/4.7.3/../../../../msp430/lib/mmpy-16/libc.a(sprintf.o)
                0x000000000000e654                snprintf
 .text.print_field
                0x000000000000e66e      0x194 /home/ape/libs/mspgcc-4.7.3/bin/../lib/gcc/msp430/4.7.3/../../../../msp430/lib/mmpy-16/libc.a(vuprintf.o)
 .text.vuprintf
                0x000000000000e802      0x63e /home/ape/libs/mspgcc-4.7.3/bin/../lib/gcc/msp430/4.7.3/../../../../msp430/lib/mmpy-16/libc.a(vuprintf.o)
                0x000000000000e802                vuprintf
 .text.puts     0x000000000000ee40       0x2c /home/ape/libs/mspgcc-4.7.3/bin/../lib/gcc/msp430/4.7.3/../../../../msp430/lib/mmpy-16/libc.a(puts.o)
                0x000000000000ee40                puts
 .text.rand     0x000000000000ee6c       0x26 /home/ape/libs/mspgcc-4.7.3/bin/../lib/gcc/msp430/4.7.3/../../../../msp430/lib/mmpy-16/libc.a(rand.o)
                0x000000000000ee6c                rand
 .text.srand    0x000000000000ee92        0xa /home/ape/libs/mspgcc-4.7.3/bin/../lib/gcc/msp430/4.7.3/../../../../msp430/lib/mmpy-16/libc.a(rand.o)
                0x000000000000ee92                srand
 .text.memcmp   0x000000000000ee9c       0x30 /home/ape/libs/mspgcc-4.7.3/bin/../lib/gcc/msp430/4.7.3/../../../../msp430/lib/mmpy-16/libc.a(memcmp.o)
                0x000000000000ee9c                memcmp
 .text.memcpy   0x000000000000eecc       0xfa /home/ape/libs/mspgcc-4.7.3/bin/../lib/gcc/msp430/4.7.3/../../../../msp430/lib/mmpy-16/libc.a(memcpy.o)
                0x000000000000eecc                memcpy
 .text.memmove  0x000000000000efc6       0xfa /home/ape/libs/mspgcc-4.7.3/bin/../lib/gcc/msp430/4.7.3/../../../../msp430/lib/mmpy-16/libc.a(memmove.o)
                0x000000000000efc6                memmove
 .text.memset   0x000000000000f0c0       0x6a /home/ape/libs/mspgcc-4.7.3/bin/../lib/gcc/msp430/4.7.3/../../../../msp430/lib/mmpy-16/libc.a(memset.o)
                0x000000000000f0c0                memset
 .text.crt0     0x000000000000f12a        0x2 /home/ape/libs/mspgcc-4.7.3/bin/../lib/gcc/msp430/4.7.3/mmpy-16/libcrt0.a(_unexpected_.o)
                0x000000000000f12a                _unexpected_
 .text.libgcc   0x000000000000f12c       0x2c /home/ape/libs/mspgcc-4.7.3/bin/../lib/gcc/msp430/4.7.3/mmpy-16/libgcc.a(_mulsi3.o)
                0x000000000000f12c                __mulsi3
 .text.libgcc   0x000000000000f158       0x22 /home/ape/libs/mspgcc-4.7.3/bin/../lib/gcc/msp430/4.7.3/mmpy-16/libgcc.a(_udivmod16.o)
                0x000000000000f158                __udivhi3
                0x000000000000f158                __ext_udivmod16
                0x000000000000f172                __umodhi3
 .text.libgcc   0x000000000000f17a       0x3a /home/ape/libs/mspgcc-4.7.3/bin/../lib/gcc/msp430/4.7.3/mmpy-16/libgcc.a(_divmod16.o)
                0x000000000000f17a                __ext_divmod16
                0x000000000000f17a                __divhi3
                0x000000000000f1ac                __modhi3
 .text.libgcc   0x000000000000f1b4       0x40 /home/ape/libs/mspgcc-4.7.3/bin/../lib/gcc/msp430/4.7.3/mmpy-16/libgcc.a(_udivmod32.o)
                0x000000000000f1b4                __udivsi3
                0x000000000000f1b4                __ext_udivmod32
                0x000000000000f1ea                __umodsi3
 .text.libgcc   0x000000000000f1f4       0x4c /home/ape/libs/mspgcc-4.7.3/bin/../lib/gcc/msp430/4.7.3/mmpy-16/libgcc.a(_divmod32.o)
                0x000000000000f1f4                __ext_divmod32
                0x000000000000f1f4                __divsi3
                0x000000000000f236                __modsi3
 .text.libgcc   0x000000000000f240       0xf0 /home/ape/libs/mspgcc-4.7.3/bin/../lib/gcc/msp430/4.7.3/mmpy-16/libgcc.a(_udivmod64.o)
                0x000000000000f240                __xabi_udivmod64
                0x000000000000f29e                __udivdi3
                0x000000000000f2c4                __umoddi3
                0x000000000000f2f2                __udivmoddi4
 *(SORT(.near.text) SORT(.near.text.*))

.rodata         0x000000000000f330      0x4e2
                0x000000000000f330                . = ALIGN (0x2)
 *(SORT(.rodata) SORT(.rodata.*) SORT(.gnu.linkonce.r.*))
 .rodata.get_value
                0x000000000000f330       0x34 build/sky/obj/cc2420.o
 .rodata.set_value
                0x000000000000f364       0x10 build/sky/obj/cc2420.o
 .rodata        0x000000000000f374       0x10 build/sky/obj/button-sensor.o
                0x000000000000f37c                button_sensor
 .rodata        0x000000000000f384       0x3e build/sky/obj/cc2420.o
                0x000000000000f384                cc2420_aes_128_driver
                0x000000000000f388                cc2420_driver
 .rodata        0x000000000000f3c2       0x14 build/sky/obj/csma.o
                0x000000000000f3c8                csma_driver
 .rodata        0x000000000000f3d6        0x6 build/sky/obj/framer-802154.o
                0x000000000000f3d6                framer_802154
 .rodata        0x000000000000f3dc        0x8 build/sky/obj/linkaddr.o
                0x000000000000f3dc                linkaddr_null
 .rodata        0x000000000000f3e4       0xb6 build/sky/obj/log.o
 .rodata        0x000000000000f49a       0x36 build/sky/obj/rpl.o
                0x000000000000f4a6                rpl_classic_driver
 .rodata        0x000000000000f4d0       0x54 build/sky/obj/rpl_node.o
                0x000000000000f50e                autostart_processes
 .rodata        0x000000000000f524       0x26 build/sky/obj/sicslowpan.o
                0x000000000000f530                sicslowpan_driver
                0x000000000000f538                llprefix
                0x000000000000f53a                unc_mxconf
                0x000000000000f53e                unc_ctxconf
                0x000000000000f542                unc_llconf
 .rodata        0x000000000000f54a       0x16 build/sky/obj/slip-bridge.o
                0x000000000000f55c                rpl_interface
 .rodata        0x000000000000f560       0x80 build/sky/obj/border-router-embedded.o
 .rodata        0x000000000000f5e0       0xf4 build/sky/obj/contiki-main.o
 .rodata        0x000000000000f6d4        0xf build/sky/obj/ctimer.o
 .rodata        0x000000000000f6e3        0xc build/sky/obj/etimer.o
 .rodata        0x000000000000f6ef        0x2 build/sky/obj/frame802154.o
 .rodata        0x000000000000f6f1       0x31 build/sky/obj/platform.o
 .rodata        0x000000000000f722       0x31 build/sky/obj/rpl-border-router.o
 .rodata        0x000000000000f753        0x8 build/sky/obj/sensors.o
 .rodata        0x000000000000f75b        0xc build/sky/obj/slip.o
 .rodata        0x000000000000f767       0x6a build/sky/obj/stack-check.o
 .rodata        0x000000000000f7d1        0xd build/sky/obj/tcpip.o
 .rodata        0x000000000000f7de       0x2d build/sky/obj/uiplib.o
 .rodata.vuprintf
                0x000000000000f80b        0x7 /home/ape/libs/mspgcc-4.7.3/bin/../lib/gcc/msp430/4.7.3/../../../../msp430/lib/mmpy-16/libc.a(vuprintf.o)
 *(SORT(.near.rodata) SORT(.near.rodata.*))
                0x000000000000f812                . = ALIGN (0x2)
                0x000000000000f812                _etext = .

.data           0x0000000000001100      0x162 load address 0x000000000000f812
                0x0000000000001100                . = ALIGN (0x2)
                0x0000000000001100                __data_start = .
 *(SORT(.data) SORT(.data.*) SORT(.gnu.linkonce.d.*))
 .data          0x0000000000001100        0xa build/sky/obj/border-router-embedded.o
                0x0000000000001100                border_router_process
 .data          0x000000000000110a        0xc build/sky/obj/cc2420.o
                0x000000000000110a                cc2420_process
 .data          0x0000000000001116        0x4 build/sky/obj/contiki-sky-platform.o
                0x0000000000001116                sensors
 .data          0x000000000000111a       0x18 build/sky/obj/csma-output.o
 .data          0x0000000000001132        0xa build/sky/obj/ctimer.o
                0x0000000000001132                ctimer_process
 .data          0x000000000000113c        0xa build/sky/obj/etimer.o
                0x000000000000113c                etimer_process
 .data          0x0000000000001146        0x2 build/sky/obj/frame802154.o
 .data          0x0000000000001148        0x8 build/sky/obj/link-stats.o
 .data          0x0000000000001150       0x50 build/sky/obj/log.o
                0x0000000000001150                all_modules
                0x000000000000119e                curr_log_level_main
 .data          0x00000000000011a0        0x2 build/sky/obj/msp430.o
 .data          0x00000000000011a2        0x8 build/sky/obj/nbr-table.o
 .data          0x00000000000011aa       0x10 build/sky/obj/queuebuf.o
 .data          0x00000000000011ba        0xa build/sky/obj/rpl-dag.o
                0x00000000000011ba                rpl_parents
 .data          0x00000000000011c4       0x1a build/sky/obj/rpl-icmp6.o
 .data          0x00000000000011de       0x12 build/sky/obj/rpl-mrhof.o
                0x00000000000011de                rpl_mrhof
 .data          0x00000000000011f0        0xa build/sky/obj/rpl_node.o
                0x00000000000011f0                hello_world_process
 .data          0x00000000000011fa        0xa build/sky/obj/sensors.o
                0x00000000000011fa                sensors_process
 .data          0x0000000000001204        0xa build/sky/obj/slip.o
                0x0000000000001204                slip_process
 .data          0x000000000000120e        0xa build/sky/obj/stack-check.o
                0x000000000000120e                stack_check_process
 .data          0x0000000000001218        0xa build/sky/obj/tcpip.o
                0x0000000000001218                tcpip_process
 .data          0x0000000000001222        0x8 build/sky/obj/uip-ds6-nbr.o
 .data          0x000000000000122a       0x22 build/sky/obj/uip-ds6-route.o
                0x000000000000122a                nbr_routes
 .data          0x000000000000124c        0xc build/sky/obj/uip-icmp6.o
 .data          0x0000000000001258        0x6 build/sky/obj/uip-nd6.o
 .data.next     0x000000000000125e        0x4 /home/ape/libs/mspgcc-4.7.3/bin/../lib/gcc/msp430/4.7.3/../../../../msp430/lib/mmpy-16/libc.a(rand.o)
 *(SORT(.near.data) SORT(.near.data.*))
                0x0000000000001262                . = ALIGN (0x2)
                0x0000000000001262                _edata = .
                0x000000000000f812                __data_load_start = LOADADDR (.data)
                0x0000000000000162                __data_size = SIZEOF (.data)

.bss            0x0000000000001262     0x1cb6 load address 0x000000000000f974
                0x0000000000001262                __bss_start = .
 *(SORT(.bss) SORT(.bss.*))
 .bss           0x0000000000001262        0xc build/sky/obj/border-router-embedded.o
 .bss           0x000000000000126e        0x8 build/sky/obj/button-sensor.o
 .bss           0x0000000000001276       0x10 build/sky/obj/cc2420.o
 .bss           0x0000000000001286        0xa build/sky/obj/clock.o
 .bss           0x0000000000001290       0xbc build/sky/obj/csma-output.o
 .bss           0x000000000000134c        0x4 build/sky/obj/ctimer.o
 .bss           0x0000000000001350        0x6 build/sky/obj/etimer.o
 .bss           0x0000000000001356       0xa0 build/sky/obj/link-stats.o
 .bss           0x00000000000013f6       0x16 build/sky/obj/log.o
                0x00000000000013f6                curr_log_level_lwm2m
                0x00000000000013f8                curr_log_level_snmp
                0x00000000000013fa                curr_log_level_coap
                0x00000000000013fc                curr_log_level_6top
                0x00000000000013fe                curr_log_level_framer
                0x0000000000001400                curr_log_level_mac
                0x0000000000001402                curr_log_level_nullnet
                0x0000000000001404                curr_log_level_6lowpan
                0x0000000000001406                curr_log_level_ipv6
                0x0000000000001408                curr_log_level_tcpip
                0x000000000000140a                curr_log_level_rpl
 .bss           0x000000000000140c       0xe2 build/sky/obj/mac-sequence.o
 .bss           0x00000000000014ee       0xe4 build/sky/obj/nbr-table.o
 .bss           0x00000000000015d2        0x2 build/sky/obj/netstack.o
 .bss           0x00000000000015d4        0x2 build/sky/obj/node-id.o
                0x00000000000015d4                node_id
 .bss           0x00000000000015d6       0x86 build/sky/obj/packetbuf.o
 .bss           0x000000000000165c        0x8 build/sky/obj/platform.o
 .bss           0x0000000000001664       0xc8 build/sky/obj/process.o
                0x0000000000001664                process_current
                0x0000000000001666                process_list
 .bss           0x000000000000172c      0x570 build/sky/obj/queuebuf.o
 .bss           0x0000000000001c9c       0x12 build/sky/obj/rpl-dag-root.o
 .bss           0x0000000000001cae       0x60 build/sky/obj/rpl-dag.o
 .bss           0x0000000000001d0e       0x18 build/sky/obj/rpl-timers.o
 .bss           0x0000000000001d26        0x2 build/sky/obj/rpl.o
 .bss           0x0000000000001d28        0xc build/sky/obj/rpl_node.o
 .bss           0x0000000000001d34        0x2 build/sky/obj/rtimer.o
 .bss           0x0000000000001d36        0x6 build/sky/obj/sensors.o
 .bss           0x0000000000001d3c      0x6de build/sky/obj/sicslowpan.o
 .bss           0x000000000000241a       0x10 build/sky/obj/slip-bridge.o
 .bss           0x000000000000242a      0x10c build/sky/obj/slip.o
 .bss           0x0000000000002536        0xe build/sky/obj/stack-check.o
 .bss           0x0000000000002544        0xc build/sky/obj/tcpip.o
 .bss           0x0000000000002550       0x9a build/sky/obj/uart1.o
 .bss           0x00000000000025ea      0x120 build/sky/obj/uip-ds6-nbr.o
 .bss           0x000000000000270a      0x2e2 build/sky/obj/uip-ds6-route.o
 .bss           0x00000000000029ec       0x28 build/sky/obj/uip-ds6.o
 .bss           0x0000000000002a14       0x14 build/sky/obj/uip-icmp6.o
 .bss           0x0000000000002a28        0x8 build/sky/obj/uip-nd6.o
 .bss           0x0000000000002a30        0x8 build/sky/obj/uip6.o
                0x0000000000002a30                uip_last_proto
                0x0000000000002a32                uip_ext_len
                0x0000000000002a34                uip_ext_bitmap
 .bss           0x0000000000002a38       0x20 build/sky/obj/uipbuf.o
 .bss           0x0000000000002a58        0x2 build/sky/obj/watchdog.o
 .bss.destination_
                0x0000000000002a5a        0x2 /home/ape/libs/mspgcc-4.7.3/bin/../lib/gcc/msp430/4.7.3/../../../../msp430/lib/mmpy-16/libc.a(sprintf.o)
 .bss.available_
                0x0000000000002a5c        0x2 /home/ape/libs/mspgcc-4.7.3/bin/../lib/gcc/msp430/4.7.3/../../../../msp430/lib/mmpy-16/libc.a(sprintf.o)
 .bss           0x0000000000002a5e        0x1 build/sky/obj/uart1-putchar.o
 *(SORT(.near.bss) SORT(.near.bss.*))
 *(SORT(COMMON))
 *fill*         0x0000000000002a5f        0x1 00
 COMMON         0x0000000000002a60        0xc build/sky/obj/cc2420.o
                0x0000000000002a60                cc2420_last_rssi
                0x0000000000002a62                cc2420_sfd_start_time
                0x0000000000002a64                cc2420_last_correlation
                0x0000000000002a66                cc2420_authority_level_of_sender
                0x0000000000002a68                cc2420_sfd_counter
                0x0000000000002a6a                cc2420_sfd_end_time
 COMMON         0x0000000000002a6c       0x14 build/sky/obj/link-stats.o
                0x0000000000002a6c                periodic_timer
 COMMON         0x0000000000002a80        0x8 build/sky/obj/linkaddr.o
                0x0000000000002a80                linkaddr_node_addr
 COMMON         0x0000000000002a88        0x2 build/sky/obj/msp430.o
                0x0000000000002a88                msp430_dco_required
 COMMON         0x0000000000002a8a       0x28 build/sky/obj/packetbuf.o
                0x0000000000002a8a                packetbuf_addrs
                0x0000000000002a9a                packetbuf_attrs
 COMMON         0x0000000000002ab2      0x102 build/sky/obj/rpl-dag.o
                0x0000000000002ab2                default_instance
                0x0000000000002ab4                instance_table
 COMMON         0x0000000000002bb4      0x180 build/sky/obj/uip-ds6.o
                0x0000000000002bb4                uip_ds6_timer_ra
                0x0000000000002bbc                uip_ds6_if
                0x0000000000002ccc                uip_ds6_netif_addr_list_offset
                0x0000000000002ccd                uip_ds6_addr_size
                0x0000000000002cce                uip_ds6_prefix_list
                0x0000000000002d28                uip_ds6_timer_periodic
 COMMON         0x0000000000002d34      0x1d6 build/sky/obj/uip6.o
                0x0000000000002d34                uip_len
                0x0000000000002d36                uip_sappdata
                0x0000000000002d38                uip_lladdr
                0x0000000000002d40                uip_aligned_buf
                0x0000000000002e30                uip_flags
                0x0000000000002e32                uip_udp_conn
                0x0000000000002e34                uip_appdata
                0x0000000000002e36                uip_conn
                0x0000000000002e38                uip_slen
                0x0000000000002e3a                uip_udp_conns
 COMMON         0x0000000000002f0a        0x2 build/sky/obj/contiki-sky-platform.o
                0x0000000000002f0a                sensors_flags
 COMMON         0x0000000000002f0c        0x8 build/sky/obj/ds2411.o
                0x0000000000002f0c                ds2411_id
 COMMON         0x0000000000002f14        0x1 build/sky/obj/rpl-border-router.o
                0x0000000000002f14                prefix_set
 COMMON         0x0000000000002f15        0x1 build/sky/obj/sensors.o
                0x0000000000002f15                sensors_event
 COMMON         0x0000000000002f16        0x1 build/sky/obj/tcpip.o
                0x0000000000002f16                tcpip_event
                0x0000000000002f18                . = ALIGN (0x2)
 *fill*         0x0000000000002f17        0x1 00
                0x0000000000002f18                __bss_end = .
                0x0000000000001cb6                __bss_size = SIZEOF (.bss)

.noinit         0x0000000000002f18        0x2 load address 0x000000000000f974
                0x0000000000002f18                . = ALIGN (0x2)
                0x0000000000002f18                __noinit_start = .
 *(SORT(.noinit) SORT(.noinit.*))
 .noinit.crt0   0x0000000000002f18        0x2 /home/ape/libs/mspgcc-4.7.3/bin/../lib/gcc/msp430/4.7.3/mmpy-16/libcrt0.a(__watchdog_support.o)
                0x0000000000002f18                __wdt_clear_value
                0x0000000000002f1a                . = ALIGN (0x2)
                0x0000000000002f1a                __noinit_end = .
                0x0000000000002f1a                . = ALIGN (0x2)
                0x0000000000002f1a                _end = .

.infomem        0x0000000000001000        0x0
                0x0000000000001000                . = ALIGN (0x2)
 *(SORT(.infomem) SORT(.infomem.*))

.infomemnobits  0x0000000000001000        0x0
                0x0000000000001000                . = ALIGN (0x2)
 *(SORT(.infomemnobits) SORT(.infomemnobits.*))

.infoa          0x0000000000001080        0x0
                0x0000000000001080                . = ALIGN (0x2)
 *(SORT(.infoa) SORT(.infoa.*))

.infob          0x0000000000001000        0x0
                0x0000000000001000                . = ALIGN (0x2)
 *(SORT(.infob) SORT(.infob.*))

.infoc          0x0000000000000000        0x0
                0x0000000000000000                . = ALIGN (0x2)
 *(SORT(.infoc) SORT(.infoc.*))

.infod          0x0000000000000000        0x0
                0x0000000000000000                . = ALIGN (0x2)
 *(SORT(.infod) SORT(.infod.*))
                0x000000000000ffff                PROVIDE (__vte_0, 0xffff)
                0x000000000000ffff                PROVIDE (__vte_1, 0xffff)
                0x000000000000ffff                PROVIDE (__vte_2, 0xffff)
                0x000000000000ffff                PROVIDE (__vte_3, 0xffff)
                0x000000000000ffff                PROVIDE (__vte_4, 0xffff)
                0x000000000000ffff                PROVIDE (__vte_5, 0xffff)
                0x000000000000ffff                PROVIDE (__vte_6, 0xffff)
                0x000000000000ffff                PROVIDE (__vte_7, 0xffff)
                0x000000000000ffff                PROVIDE (__vte_8, 0xffff)
                0x000000000000ffff                PROVIDE (__vte_9, 0xffff)
                0x000000000000ffff                PROVIDE (__vte_10, 0xffff)
                0x000000000000ffff                PROVIDE (__vte_11, 0xffff)
                0x000000000000ffff                PROVIDE (__vte_12, 0xffff)
                0x000000000000ffff                PROVIDE (__vte_13, 0xffff)
                0x000000000000ffff                PROVIDE (__vte_14, 0xffff)
                0x000000000000ffff                PROVIDE (__vte_15, 0xffff)
                0x000000000000ffff                PROVIDE (__vte_16, 0xffff)
                0x000000000000ffff                PROVIDE (__vte_17, 0xffff)
                0x000000000000ffff                PROVIDE (__vte_18, 0xffff)
                0x000000000000ffff                PROVIDE (__vte_19, 0xffff)
                0x000000000000ffff                PROVIDE (__vte_20, 0xffff)
                0x000000000000ffff                PROVIDE (__vte_21, 0xffff)
                0x000000000000ffff                PROVIDE (__vte_22, 0xffff)
                0x000000000000ffff                PROVIDE (__vte_23, 0xffff)
                0x000000000000ffff                PROVIDE (__vte_24, 0xffff)
                0x000000000000ffff                PROVIDE (__vte_25, 0xffff)
                0x000000000000ffff                PROVIDE (__vte_26, 0xffff)
                0x000000000000ffff                PROVIDE (__vte_27, 0xffff)
                0x000000000000ffff                PROVIDE (__vte_28, 0xffff)
                0x000000000000ffff                PROVIDE (__vte_29, 0xffff)
                0x000000000000ffff                PROVIDE (__vte_30, 0xffff)
                0x000000000000ffff                PROVIDE (__vte_31, 0xffff)

.vectors        0x000000000000ffe0       0x20
                0x000000000000ffe0                __vectors_start = .
 *(SORT(.vectors*))
 .vectors       0x000000000000ffe0       0x20 /home/ape/libs/mspgcc-4.7.3/bin/../lib/gcc/msp430/4.7.3/mmpy-16/crt0ivtbl16.o
                0x000000000000ffe0                __ivtbl_16
                0x0000000000010000                _vectors_end = .

.fartext        0x0000000000000000        0x0
                0x0000000000000000                . = ALIGN (0x2)
 *(SORT(.fartext) SORT(.fartext.*))

.far.text       0x0000000000000000        0x0
                0x0000000000000000                . = ALIGN (0x2)
 *(SORT(.far.text) SORT(.far.text.*))

.far.rodata     0x0000000000000000        0x0
                0x0000000000000000                . = ALIGN (0x2)
 *(SORT(.far.rodata) SORT(.far.rodata.*))
                0x0000000000000000                . = ALIGN (0x2)
                0x0000000000000000                _efartext = .

.far.data       0x0000000000000000        0x0
                0x0000000000000000                . = ALIGN (0x2)
                0x0000000000000000                __far_data_start = .
 *(SORT(.far.data) SORT(.far.data.*))
                0x0000000000000000                . = ALIGN (0x2)
                0x0000000000000000                _efardata = .
                0x0000000000000000                __far_data_load_start = LOADADDR (.far.data)
                0x0000000000000000                __far_data_size = SIZEOF (.far.data)

.far.bss        0x0000000000000000        0x0
                0x0000000000000000                . = ALIGN (0x2)
                0x0000000000000000                __far_bss_start = .
 *(SORT(.far.bss) SORT(.far.bss.*))
                0x0000000000000000                . = ALIGN (0x2)
                0x0000000000000000                __far_bss_end = .
                0x0000000000000000                __far_bss_size = SIZEOF (.far.bss)
                0x0000000000000000                . = ALIGN (0x2)
                0x0000000000000000                _far_end = .

.profiler
 *(SORT(.profiler))

.stab
 *(SORT(.stab))

.stabstr
 *(SORT(.stabstr))

.stab.excl
 *(SORT(.stab.excl))

.stab.exclstr
 *(SORT(.stab.exclstr))

.stab.index
 *(SORT(.stab.index))

.stab.indexstr
 *(SORT(.stab.indexstr))

.comment        0x0000000000000000       0x30
 *(SORT(.comment))
 .comment       0x0000000000000000       0x30 build/sky/obj/autostart.o
                                         0x31 (size before relaxing)
 .comment       0x0000000000000000       0x31 build/sky/obj/border-router-embedded.o
 .comment       0x0000000000000000       0x31 build/sky/obj/button-sensor.o
 .comment       0x0000000000000000       0x31 build/sky/obj/cc2420-arch-sfd.o
 .comment       0x0000000000000000       0x31 build/sky/obj/cc2420-arch.o
 .comment       0x0000000000000000       0x31 build/sky/obj/cc2420.o
 .comment       0x0000000000000000       0x31 build/sky/obj/clock.o
 .comment       0x0000000000000000       0x31 build/sky/obj/contiki-main.o
 .comment       0x0000000000000000       0x31 build/sky/obj/contiki-sky-platform.o
 .comment       0x0000000000000000       0x31 build/sky/obj/csma-output.o
 .comment       0x0000000000000000       0x31 build/sky/obj/csma-security.o
 .comment       0x0000000000000000       0x31 build/sky/obj/csma.o
 .comment       0x0000000000000000       0x31 build/sky/obj/ctimer.o
 .comment       0x0000000000000000       0x31 build/sky/obj/ds2411.o
 .comment       0x0000000000000000       0x31 build/sky/obj/energest.o
 .comment       0x0000000000000000       0x31 build/sky/obj/etimer.o
 .comment       0x0000000000000000       0x31 build/sky/obj/frame802154.o
 .comment       0x0000000000000000       0x31 build/sky/obj/framer-802154.o
 .comment       0x0000000000000000       0x31 build/sky/obj/leds-arch.o
 .comment       0x0000000000000000       0x31 build/sky/obj/leds.o
 .comment       0x0000000000000000       0x31 build/sky/obj/link-stats.o
 .comment       0x0000000000000000       0x31 build/sky/obj/linkaddr.o
 .comment       0x0000000000000000       0x31 build/sky/obj/list.o
 .comment       0x0000000000000000       0x31 build/sky/obj/log.o
 .comment       0x0000000000000000       0x31 build/sky/obj/mac-sequence.o
 .comment       0x0000000000000000       0x31 build/sky/obj/mac.o
 .comment       0x0000000000000000       0x31 build/sky/obj/memb.o
 .comment       0x0000000000000000       0x31 build/sky/obj/msp430.o
 .comment       0x0000000000000000       0x31 build/sky/obj/nbr-table.o
 .comment       0x0000000000000000       0x31 build/sky/obj/netstack.o
 .comment       0x0000000000000000       0x31 build/sky/obj/node-id.o
 .comment       0x0000000000000000       0x31 build/sky/obj/packetbuf.o
 .comment       0x0000000000000000       0x31 build/sky/obj/platform.o
 .comment       0x0000000000000000       0x31 build/sky/obj/process.o
 .comment       0x0000000000000000       0x31 build/sky/obj/queuebuf.o
 .comment       0x0000000000000000       0x31 build/sky/obj/random.o
 .comment       0x0000000000000000       0x31 build/sky/obj/rpl-border-router.o
 .comment       0x0000000000000000       0x31 build/sky/obj/rpl-dag-root.o
 .comment       0x0000000000000000       0x31 build/sky/obj/rpl-dag.o
 .comment       0x0000000000000000       0x31 build/sky/obj/rpl-ext-header.o
 .comment       0x0000000000000000       0x31 build/sky/obj/rpl-icmp6.o
 .comment       0x0000000000000000       0x31 build/sky/obj/rpl-mrhof.o
 .comment       0x0000000000000000       0x31 build/sky/obj/rpl-nbr-policy.o
 .comment       0x0000000000000000       0x31 build/sky/obj/rpl-timers.o
 .comment       0x0000000000000000       0x31 build/sky/obj/rpl.o
 .comment       0x0000000000000000       0x31 build/sky/obj/rpl_node.o
 .comment       0x0000000000000000       0x31 build/sky/obj/rtimer-arch.o
 .comment       0x0000000000000000       0x31 build/sky/obj/rtimer.o
 .comment       0x0000000000000000       0x31 build/sky/obj/sensors.o
 .comment       0x0000000000000000       0x31 build/sky/obj/sicslowpan.o
 .comment       0x0000000000000000       0x31 build/sky/obj/slip-bridge.o
 .comment       0x0000000000000000       0x31 build/sky/obj/slip.o
 .comment       0x0000000000000000       0x31 build/sky/obj/slip_uart1.o
 .comment       0x0000000000000000       0x31 build/sky/obj/spi-legacy.o
 .comment       0x0000000000000000       0x31 build/sky/obj/stack-check.o
 .comment       0x0000000000000000       0x31 build/sky/obj/stimer.o
 .comment       0x0000000000000000       0x31 build/sky/obj/tcpip.o
 .comment       0x0000000000000000       0x31 build/sky/obj/timer.o
 .comment       0x0000000000000000       0x31 build/sky/obj/uart1-putchar.o
 .comment       0x0000000000000000       0x31 build/sky/obj/uart1.o
 .comment       0x0000000000000000       0x31 build/sky/obj/uip-ds6-nbr.o
 .comment       0x0000000000000000       0x31 build/sky/obj/uip-ds6-route.o
 .comment       0x0000000000000000       0x31 build/sky/obj/uip-ds6.o
 .comment       0x0000000000000000       0x31 build/sky/obj/uip-icmp6.o
 .comment       0x0000000000000000       0x31 build/sky/obj/uip-nd6.o
 .comment       0x0000000000000000       0x31 build/sky/obj/uip6.o
 .comment       0x0000000000000000       0x31 build/sky/obj/uipbuf.o
 .comment       0x0000000000000000       0x31 build/sky/obj/uiplib.o
 .comment       0x0000000000000000       0x31 build/sky/obj/watchdog.o
 .comment       0x0000000000000000       0x31 build/sky/obj/xmem.o
 .comment       0x0000000000000000       0x31 /home/ape/libs/mspgcc-4.7.3/bin/../lib/gcc/msp430/4.7.3/../../../../msp430/lib/mmpy-16/libc.a(printf.o)
 .comment       0x0000000000000000       0x31 /home/ape/libs/mspgcc-4.7.3/bin/../lib/gcc/msp430/4.7.3/../../../../msp430/lib/mmpy-16/libc.a(sprintf.o)
 .comment       0x0000000000000000       0x31 /home/ape/libs/mspgcc-4.7.3/bin/../lib/gcc/msp430/4.7.3/../../../../msp430/lib/mmpy-16/libc.a(vuprintf.o)
 .comment       0x0000000000000000       0x31 /home/ape/libs/mspgcc-4.7.3/bin/../lib/gcc/msp430/4.7.3/../../../../msp430/lib/mmpy-16/libc.a(puts.o)
 .comment       0x0000000000000000       0x31 /home/ape/libs/mspgcc-4.7.3/bin/../lib/gcc/msp430/4.7.3/../../../../msp430/lib/mmpy-16/libc.a(rand.o)
 .comment       0x0000000000000000       0x31 /home/ape/libs/mspgcc-4.7.3/bin/../lib/gcc/msp430/4.7.3/../../../../msp430/lib/mmpy-16/libc.a(memcmp.o)
 .comment       0x0000000000000000       0x31 /home/ape/libs/mspgcc-4.7.3/bin/../lib/gcc/msp430/4.7.3/../../../../msp430/lib/mmpy-16/libc.a(memcpy.o)
 .comment       0x0000000000000000       0x31 /home/ape/libs/mspgcc-4.7.3/bin/../lib/gcc/msp430/4.7.3/../../../../msp430/lib/mmpy-16/libc.a(memmove.o)
 .comment       0x0000000000000000       0x31 /home/ape/libs/mspgcc-4.7.3/bin/../lib/gcc/msp430/4.7.3/../../../../msp430/lib/mmpy-16/libc.a(memset.o)

.debug
 *(SORT(.debug))

.line
 *(SORT(.line))

.debug_srcinfo
 *(SORT(.debug_srcinfo))

.debug_sfnames
 *(SORT(.debug_sfnames))

.debug_aranges  0x0000000000000000      0x1dc
 *(SORT(.debug_aranges))
 .debug_aranges
                0x0000000000000000       0x14 /home/ape/libs/mspgcc-4.7.3/bin/../lib/gcc/msp430/4.7.3/mmpy-16/crt0ivtbl16.o
 .debug_aranges
                0x0000000000000014       0x14 /home/ape/libs/mspgcc-4.7.3/bin/../lib/gcc/msp430/4.7.3/mmpy-16/libgcc.a(_mulsi3.o)
 .debug_aranges
                0x0000000000000028       0x14 /home/ape/libs/mspgcc-4.7.3/bin/../lib/gcc/msp430/4.7.3/mmpy-16/libgcc.a(_udivmod16.o)
 .debug_aranges
                0x000000000000003c       0x14 /home/ape/libs/mspgcc-4.7.3/bin/../lib/gcc/msp430/4.7.3/mmpy-16/libgcc.a(_divmod16.o)
 .debug_aranges
                0x0000000000000050       0x14 /home/ape/libs/mspgcc-4.7.3/bin/../lib/gcc/msp430/4.7.3/mmpy-16/libgcc.a(_udivmod32.o)
 .debug_aranges
                0x0000000000000064       0x14 /home/ape/libs/mspgcc-4.7.3/bin/../lib/gcc/msp430/4.7.3/mmpy-16/libgcc.a(_divmod32.o)
 .debug_aranges
                0x0000000000000078       0x14 /home/ape/libs/mspgcc-4.7.3/bin/../lib/gcc/msp430/4.7.3/mmpy-16/libgcc.a(_udivmod64.o)
 .debug_aranges
                0x000000000000008c       0x14 /home/ape/libs/mspgcc-4.7.3/bin/../lib/gcc/msp430/4.7.3/mmpy-16/libcrt0.a(__watchdog_support.o)
 .debug_aranges
                0x00000000000000a0       0x14 /home/ape/libs/mspgcc-4.7.3/bin/../lib/gcc/msp430/4.7.3/mmpy-16/libcrt0.a(__init_stack.o)
 .debug_aranges
                0x00000000000000b4       0x14 /home/ape/libs/mspgcc-4.7.3/bin/../lib/gcc/msp430/4.7.3/mmpy-16/libcrt0.a(_copy_data.o)
 .debug_aranges
                0x00000000000000c8       0x14 /home/ape/libs/mspgcc-4.7.3/bin/../lib/gcc/msp430/4.7.3/mmpy-16/libcrt0.a(_clear_bss.o)
 .debug_aranges
                0x00000000000000dc       0x14 /home/ape/libs/mspgcc-4.7.3/bin/../lib/gcc/msp430/4.7.3/mmpy-16/libcrt0.a(_endless_loop__.o)
 .debug_aranges
                0x00000000000000f0       0x14 /home/ape/libs/mspgcc-4.7.3/bin/../lib/gcc/msp430/4.7.3/mmpy-16/libcrt0.a(_unexpected_.o)
 .debug_aranges
                0x0000000000000104       0x18 /home/ape/libs/mspgcc-4.7.3/bin/../lib/gcc/msp430/4.7.3/../../../../msp430/lib/mmpy-16/libc.a(printf.o)
 .debug_aranges
                0x000000000000011c       0x28 /home/ape/libs/mspgcc-4.7.3/bin/../lib/gcc/msp430/4.7.3/../../../../msp430/lib/mmpy-16/libc.a(sprintf.o)
 .debug_aranges
                0x0000000000000144       0x18 /home/ape/libs/mspgcc-4.7.3/bin/../lib/gcc/msp430/4.7.3/../../../../msp430/lib/mmpy-16/libc.a(vuprintf.o)
 .debug_aranges
                0x000000000000015c       0x14 /home/ape/libs/mspgcc-4.7.3/bin/../lib/gcc/msp430/4.7.3/../../../../msp430/lib/mmpy-16/libc.a(puts.o)
 .debug_aranges
                0x0000000000000170       0x1c /home/ape/libs/mspgcc-4.7.3/bin/../lib/gcc/msp430/4.7.3/../../../../msp430/lib/mmpy-16/libc.a(rand.o)
 .debug_aranges
                0x000000000000018c       0x14 /home/ape/libs/mspgcc-4.7.3/bin/../lib/gcc/msp430/4.7.3/../../../../msp430/lib/mmpy-16/libc.a(memcmp.o)
 .debug_aranges
                0x00000000000001a0       0x14 /home/ape/libs/mspgcc-4.7.3/bin/../lib/gcc/msp430/4.7.3/../../../../msp430/lib/mmpy-16/libc.a(memcpy.o)
 .debug_aranges
                0x00000000000001b4       0x14 /home/ape/libs/mspgcc-4.7.3/bin/../lib/gcc/msp430/4.7.3/../../../../msp430/lib/mmpy-16/libc.a(memmove.o)
 .debug_aranges
                0x00000000000001c8       0x14 /home/ape/libs/mspgcc-4.7.3/bin/../lib/gcc/msp430/4.7.3/../../../../msp430/lib/mmpy-16/libc.a(memset.o)

.debug_pubnames
 *(SORT(.debug_pubnames))

.debug_info     0x0000000000000000     0x188d
 *(SORT(.debug_info))
 .debug_info    0x0000000000000000       0x9d /home/ape/libs/mspgcc-4.7.3/bin/../lib/gcc/msp430/4.7.3/mmpy-16/crt0ivtbl16.o
 .debug_info    0x000000000000009d       0x9a /home/ape/libs/mspgcc-4.7.3/bin/../lib/gcc/msp430/4.7.3/mmpy-16/libgcc.a(_mulsi3.o)
 .debug_info    0x0000000000000137       0x9a /home/ape/libs/mspgcc-4.7.3/bin/../lib/gcc/msp430/4.7.3/mmpy-16/libgcc.a(_udivmod16.o)
 .debug_info    0x00000000000001d1       0x9a /home/ape/libs/mspgcc-4.7.3/bin/../lib/gcc/msp430/4.7.3/mmpy-16/libgcc.a(_divmod16.o)
 .debug_info    0x000000000000026b       0x9a /home/ape/libs/mspgcc-4.7.3/bin/../lib/gcc/msp430/4.7.3/mmpy-16/libgcc.a(_udivmod32.o)
 .debug_info    0x0000000000000305       0x9a /home/ape/libs/mspgcc-4.7.3/bin/../lib/gcc/msp430/4.7.3/mmpy-16/libgcc.a(_divmod32.o)
 .debug_info    0x000000000000039f      0x16e /home/ape/libs/mspgcc-4.7.3/bin/../lib/gcc/msp430/4.7.3/../../../../msp430/lib/mmpy-16/libc.a(printf.o)
 .debug_info    0x000000000000050d      0x321 /home/ape/libs/mspgcc-4.7.3/bin/../lib/gcc/msp430/4.7.3/../../../../msp430/lib/mmpy-16/libc.a(sprintf.o)
 .debug_info    0x000000000000082e      0x5d4 /home/ape/libs/mspgcc-4.7.3/bin/../lib/gcc/msp430/4.7.3/../../../../msp430/lib/mmpy-16/libc.a(vuprintf.o)
 .debug_info    0x0000000000000e02       0xc7 /home/ape/libs/mspgcc-4.7.3/bin/../lib/gcc/msp430/4.7.3/../../../../msp430/lib/mmpy-16/libc.a(puts.o)
 .debug_info    0x0000000000000ec9      0x146 /home/ape/libs/mspgcc-4.7.3/bin/../lib/gcc/msp430/4.7.3/../../../../msp430/lib/mmpy-16/libc.a(rand.o)
 .debug_info    0x000000000000100f       0xe5 /home/ape/libs/mspgcc-4.7.3/bin/../lib/gcc/msp430/4.7.3/../../../../msp430/lib/mmpy-16/libc.a(memcmp.o)
 .debug_info    0x00000000000010f4      0x12c /home/ape/libs/mspgcc-4.7.3/bin/../lib/gcc/msp430/4.7.3/../../../../msp430/lib/mmpy-16/libc.a(memcpy.o)
 .debug_info    0x0000000000001220      0x12c /home/ape/libs/mspgcc-4.7.3/bin/../lib/gcc/msp430/4.7.3/../../../../msp430/lib/mmpy-16/libc.a(memmove.o)
 .debug_info    0x000000000000134c      0x117 /home/ape/libs/mspgcc-4.7.3/bin/../lib/gcc/msp430/4.7.3/../../../../msp430/lib/mmpy-16/libc.a(memset.o)
 .debug_info    0x0000000000001463       0x9a /home/ape/libs/mspgcc-4.7.3/bin/../lib/gcc/msp430/4.7.3/mmpy-16/libgcc.a(_udivmod64.o)
 .debug_info    0x00000000000014fd       0x98 /home/ape/libs/mspgcc-4.7.3/bin/../lib/gcc/msp430/4.7.3/mmpy-16/libcrt0.a(__watchdog_support.o)
 .debug_info    0x0000000000001595       0x98 /home/ape/libs/mspgcc-4.7.3/bin/../lib/gcc/msp430/4.7.3/mmpy-16/libcrt0.a(__init_stack.o)
 .debug_info    0x000000000000162d       0x98 /home/ape/libs/mspgcc-4.7.3/bin/../lib/gcc/msp430/4.7.3/mmpy-16/libcrt0.a(_copy_data.o)
 .debug_info    0x00000000000016c5       0x98 /home/ape/libs/mspgcc-4.7.3/bin/../lib/gcc/msp430/4.7.3/mmpy-16/libcrt0.a(_clear_bss.o)
 .debug_info    0x000000000000175d       0x98 /home/ape/libs/mspgcc-4.7.3/bin/../lib/gcc/msp430/4.7.3/mmpy-16/libcrt0.a(_endless_loop__.o)
 .debug_info    0x00000000000017f5       0x98 /home/ape/libs/mspgcc-4.7.3/bin/../lib/gcc/msp430/4.7.3/mmpy-16/libcrt0.a(_unexpected_.o)
 *(SORT(.gnu.linkonce.wi.*))

.debug_abbrev   0x0000000000000000      0x9bb
 *(SORT(.debug_abbrev))
 .debug_abbrev  0x0000000000000000       0x14 /home/ape/libs/mspgcc-4.7.3/bin/../lib/gcc/msp430/4.7.3/mmpy-16/crt0ivtbl16.o
 .debug_abbrev  0x0000000000000014       0x14 /home/ape/libs/mspgcc-4.7.3/bin/../lib/gcc/msp430/4.7.3/mmpy-16/libgcc.a(_mulsi3.o)
 .debug_abbrev  0x0000000000000028       0x14 /home/ape/libs/mspgcc-4.7.3/bin/../lib/gcc/msp430/4.7.3/mmpy-16/libgcc.a(_udivmod16.o)
 .debug_abbrev  0x000000000000003c       0x14 /home/ape/libs/mspgcc-4.7.3/bin/../lib/gcc/msp430/4.7.3/mmpy-16/libgcc.a(_divmod16.o)
 .debug_abbrev  0x0000000000000050       0x14 /home/ape/libs/mspgcc-4.7.3/bin/../lib/gcc/msp430/4.7.3/mmpy-16/libgcc.a(_udivmod32.o)
 .debug_abbrev  0x0000000000000064       0x14 /home/ape/libs/mspgcc-4.7.3/bin/../lib/gcc/msp430/4.7.3/mmpy-16/libgcc.a(_divmod32.o)
 .debug_abbrev  0x0000000000000078       0xfa /home/ape/libs/mspgcc-4.7.3/bin/../lib/gcc/msp430/4.7.3/../../../../msp430/lib/mmpy-16/libc.a(printf.o)
 .debug_abbrev  0x0000000000000172      0x14c /home/ape/libs/mspgcc-4.7.3/bin/../lib/gcc/msp430/4.7.3/../../../../msp430/lib/mmpy-16/libc.a(sprintf.o)
 .debug_abbrev  0x00000000000002be      0x23e /home/ape/libs/mspgcc-4.7.3/bin/../lib/gcc/msp430/4.7.3/../../../../msp430/lib/mmpy-16/libc.a(vuprintf.o)
 .debug_abbrev  0x00000000000004fc       0xa3 /home/ape/libs/mspgcc-4.7.3/bin/../lib/gcc/msp430/4.7.3/../../../../msp430/lib/mmpy-16/libc.a(puts.o)
 .debug_abbrev  0x000000000000059f       0xfb /home/ape/libs/mspgcc-4.7.3/bin/../lib/gcc/msp430/4.7.3/../../../../msp430/lib/mmpy-16/libc.a(rand.o)
 .debug_abbrev  0x000000000000069a       0x9e /home/ape/libs/mspgcc-4.7.3/bin/../lib/gcc/msp430/4.7.3/../../../../msp430/lib/mmpy-16/libc.a(memcmp.o)
 .debug_abbrev  0x0000000000000738       0xab /home/ape/libs/mspgcc-4.7.3/bin/../lib/gcc/msp430/4.7.3/../../../../msp430/lib/mmpy-16/libc.a(memcpy.o)
 .debug_abbrev  0x00000000000007e3       0xab /home/ape/libs/mspgcc-4.7.3/bin/../lib/gcc/msp430/4.7.3/../../../../msp430/lib/mmpy-16/libc.a(memmove.o)
 .debug_abbrev  0x000000000000088e       0xa1 /home/ape/libs/mspgcc-4.7.3/bin/../lib/gcc/msp430/4.7.3/../../../../msp430/lib/mmpy-16/libc.a(memset.o)
 .debug_abbrev  0x000000000000092f       0x14 /home/ape/libs/mspgcc-4.7.3/bin/../lib/gcc/msp430/4.7.3/mmpy-16/libgcc.a(_udivmod64.o)
 .debug_abbrev  0x0000000000000943       0x14 /home/ape/libs/mspgcc-4.7.3/bin/../lib/gcc/msp430/4.7.3/mmpy-16/libcrt0.a(__watchdog_support.o)
 .debug_abbrev  0x0000000000000957       0x14 /home/ape/libs/mspgcc-4.7.3/bin/../lib/gcc/msp430/4.7.3/mmpy-16/libcrt0.a(__init_stack.o)
 .debug_abbrev  0x000000000000096b       0x14 /home/ape/libs/mspgcc-4.7.3/bin/../lib/gcc/msp430/4.7.3/mmpy-16/libcrt0.a(_copy_data.o)
 .debug_abbrev  0x000000000000097f       0x14 /home/ape/libs/mspgcc-4.7.3/bin/../lib/gcc/msp430/4.7.3/mmpy-16/libcrt0.a(_clear_bss.o)
 .debug_abbrev  0x0000000000000993       0x14 /home/ape/libs/mspgcc-4.7.3/bin/../lib/gcc/msp430/4.7.3/mmpy-16/libcrt0.a(_endless_loop__.o)
 .debug_abbrev  0x00000000000009a7       0x14 /home/ape/libs/mspgcc-4.7.3/bin/../lib/gcc/msp430/4.7.3/mmpy-16/libcrt0.a(_unexpected_.o)

.debug_line     0x0000000000000000      0xf26
 *(SORT(.debug_line))
 .debug_line    0x0000000000000000       0x64 /home/ape/libs/mspgcc-4.7.3/bin/../lib/gcc/msp430/4.7.3/mmpy-16/crt0ivtbl16.o
 .debug_line    0x0000000000000064       0x77 /home/ape/libs/mspgcc-4.7.3/bin/../lib/gcc/msp430/4.7.3/mmpy-16/libgcc.a(_mulsi3.o)
 .debug_line    0x00000000000000db       0x70 /home/ape/libs/mspgcc-4.7.3/bin/../lib/gcc/msp430/4.7.3/mmpy-16/libgcc.a(_udivmod16.o)
 .debug_line    0x000000000000014b       0x7b /home/ape/libs/mspgcc-4.7.3/bin/../lib/gcc/msp430/4.7.3/mmpy-16/libgcc.a(_divmod16.o)
 .debug_line    0x00000000000001c6       0x7f /home/ape/libs/mspgcc-4.7.3/bin/../lib/gcc/msp430/4.7.3/mmpy-16/libgcc.a(_udivmod32.o)
 .debug_line    0x0000000000000245       0x84 /home/ape/libs/mspgcc-4.7.3/bin/../lib/gcc/msp430/4.7.3/mmpy-16/libgcc.a(_divmod32.o)
 .debug_line    0x00000000000002c9       0xab /home/ape/libs/mspgcc-4.7.3/bin/../lib/gcc/msp430/4.7.3/../../../../msp430/lib/mmpy-16/libc.a(printf.o)
 .debug_line    0x0000000000000374      0x109 /home/ape/libs/mspgcc-4.7.3/bin/../lib/gcc/msp430/4.7.3/../../../../msp430/lib/mmpy-16/libc.a(sprintf.o)
 .debug_line    0x000000000000047d      0x30c /home/ape/libs/mspgcc-4.7.3/bin/../lib/gcc/msp430/4.7.3/../../../../msp430/lib/mmpy-16/libc.a(vuprintf.o)
 .debug_line    0x0000000000000789       0x65 /home/ape/libs/mspgcc-4.7.3/bin/../lib/gcc/msp430/4.7.3/../../../../msp430/lib/mmpy-16/libc.a(puts.o)
 .debug_line    0x00000000000007ee       0x68 /home/ape/libs/mspgcc-4.7.3/bin/../lib/gcc/msp430/4.7.3/../../../../msp430/lib/mmpy-16/libc.a(rand.o)
 .debug_line    0x0000000000000856       0x91 /home/ape/libs/mspgcc-4.7.3/bin/../lib/gcc/msp430/4.7.3/../../../../msp430/lib/mmpy-16/libc.a(memcmp.o)
 .debug_line    0x00000000000008e7      0x11a /home/ape/libs/mspgcc-4.7.3/bin/../lib/gcc/msp430/4.7.3/../../../../msp430/lib/mmpy-16/libc.a(memcpy.o)
 .debug_line    0x0000000000000a01      0x119 /home/ape/libs/mspgcc-4.7.3/bin/../lib/gcc/msp430/4.7.3/../../../../msp430/lib/mmpy-16/libc.a(memmove.o)
 .debug_line    0x0000000000000b1a       0xf4 /home/ape/libs/mspgcc-4.7.3/bin/../lib/gcc/msp430/4.7.3/../../../../msp430/lib/mmpy-16/libc.a(memset.o)
 .debug_line    0x0000000000000c0e       0xc9 /home/ape/libs/mspgcc-4.7.3/bin/../lib/gcc/msp430/4.7.3/mmpy-16/libgcc.a(_udivmod64.o)
 .debug_line    0x0000000000000cd7       0x62 /home/ape/libs/mspgcc-4.7.3/bin/../lib/gcc/msp430/4.7.3/mmpy-16/libcrt0.a(__watchdog_support.o)
 .debug_line    0x0000000000000d39       0x60 /home/ape/libs/mspgcc-4.7.3/bin/../lib/gcc/msp430/4.7.3/mmpy-16/libcrt0.a(__init_stack.o)
 .debug_line    0x0000000000000d99       0x66 /home/ape/libs/mspgcc-4.7.3/bin/../lib/gcc/msp430/4.7.3/mmpy-16/libcrt0.a(_copy_data.o)
 .debug_line    0x0000000000000dff       0x66 /home/ape/libs/mspgcc-4.7.3/bin/../lib/gcc/msp430/4.7.3/mmpy-16/libcrt0.a(_clear_bss.o)
 .debug_line    0x0000000000000e65       0x61 /home/ape/libs/mspgcc-4.7.3/bin/../lib/gcc/msp430/4.7.3/mmpy-16/libcrt0.a(_endless_loop__.o)
 .debug_line    0x0000000000000ec6       0x60 /home/ape/libs/mspgcc-4.7.3/bin/../lib/gcc/msp430/4.7.3/mmpy-16/libcrt0.a(_unexpected_.o)

.debug_frame    0x0000000000000000      0x250
 *(SORT(.debug_frame))
 .debug_frame   0x0000000000000000       0x2a /home/ape/libs/mspgcc-4.7.3/bin/../lib/gcc/msp430/4.7.3/../../../../msp430/lib/mmpy-16/libc.a(printf.o)
 .debug_frame   0x000000000000002a       0x68 /home/ape/libs/mspgcc-4.7.3/bin/../lib/gcc/msp430/4.7.3/../../../../msp430/lib/mmpy-16/libc.a(sprintf.o)
 .debug_frame   0x0000000000000092       0xa0 /home/ape/libs/mspgcc-4.7.3/bin/../lib/gcc/msp430/4.7.3/../../../../msp430/lib/mmpy-16/libc.a(vuprintf.o)
 .debug_frame   0x0000000000000132       0x24 /home/ape/libs/mspgcc-4.7.3/bin/../lib/gcc/msp430/4.7.3/../../../../msp430/lib/mmpy-16/libc.a(puts.o)
 .debug_frame   0x0000000000000156       0x3c /home/ape/libs/mspgcc-4.7.3/bin/../lib/gcc/msp430/4.7.3/../../../../msp430/lib/mmpy-16/libc.a(rand.o)
 .debug_frame   0x0000000000000192       0x28 /home/ape/libs/mspgcc-4.7.3/bin/../lib/gcc/msp430/4.7.3/../../../../msp430/lib/mmpy-16/libc.a(memcmp.o)
 .debug_frame   0x00000000000001ba       0x32 /home/ape/libs/mspgcc-4.7.3/bin/../lib/gcc/msp430/4.7.3/../../../../msp430/lib/mmpy-16/libc.a(memcpy.o)
 .debug_frame   0x00000000000001ec       0x32 /home/ape/libs/mspgcc-4.7.3/bin/../lib/gcc/msp430/4.7.3/../../../../msp430/lib/mmpy-16/libc.a(memmove.o)
 .debug_frame   0x000000000000021e       0x32 /home/ape/libs/mspgcc-4.7.3/bin/../lib/gcc/msp430/4.7.3/../../../../msp430/lib/mmpy-16/libc.a(memset.o)

.debug_str      0x0000000000000000      0x458
 *(SORT(.debug_str))
 .debug_str     0x0000000000000000       0xe7 /home/ape/libs/mspgcc-4.7.3/bin/../lib/gcc/msp430/4.7.3/../../../../msp430/lib/mmpy-16/libc.a(printf.o)
                                        0x138 (size before relaxing)
 .debug_str     0x00000000000000e7       0x75 /home/ape/libs/mspgcc-4.7.3/bin/../lib/gcc/msp430/4.7.3/../../../../msp430/lib/mmpy-16/libc.a(sprintf.o)
                                        0x19d (size before relaxing)
 .debug_str     0x000000000000015c      0x218 /home/ape/libs/mspgcc-4.7.3/bin/../lib/gcc/msp430/4.7.3/../../../../msp430/lib/mmpy-16/libc.a(vuprintf.o)
                                        0x383 (size before relaxing)
 .debug_str     0x0000000000000374       0x1d /home/ape/libs/mspgcc-4.7.3/bin/../lib/gcc/msp430/4.7.3/../../../../msp430/lib/mmpy-16/libc.a(puts.o)
                                         0xfd (size before relaxing)
 .debug_str     0x0000000000000391       0x2f /home/ape/libs/mspgcc-4.7.3/bin/../lib/gcc/msp430/4.7.3/../../../../msp430/lib/mmpy-16/libc.a(rand.o)
                                        0x114 (size before relaxing)
 .debug_str     0x00000000000003c0       0x19 /home/ape/libs/mspgcc-4.7.3/bin/../lib/gcc/msp430/4.7.3/../../../../msp430/lib/mmpy-16/libc.a(memcmp.o)
                                        0x100 (size before relaxing)
 .debug_str     0x00000000000003d9       0x3e /home/ape/libs/mspgcc-4.7.3/bin/../lib/gcc/msp430/4.7.3/../../../../msp430/lib/mmpy-16/libc.a(memcpy.o)
                                        0x12e (size before relaxing)
 .debug_str     0x0000000000000417       0x1b /home/ape/libs/mspgcc-4.7.3/bin/../lib/gcc/msp430/4.7.3/../../../../msp430/lib/mmpy-16/libc.a(memmove.o)
                                        0x130 (size before relaxing)
 .debug_str     0x0000000000000432       0x26 /home/ape/libs/mspgcc-4.7.3/bin/../lib/gcc/msp430/4.7.3/../../../../msp430/lib/mmpy-16/libc.a(memset.o)
                                        0x12c (size before relaxing)

.debug_loc      0x0000000000000000      0xefe
 *(SORT(.debug_loc))
 .debug_loc     0x0000000000000000       0x4c /home/ape/libs/mspgcc-4.7.3/bin/../lib/gcc/msp430/4.7.3/../../../../msp430/lib/mmpy-16/libc.a(printf.o)
 .debug_loc     0x000000000000004c      0x13a /home/ape/libs/mspgcc-4.7.3/bin/../lib/gcc/msp430/4.7.3/../../../../msp430/lib/mmpy-16/libc.a(sprintf.o)
 .debug_loc     0x0000000000000186      0x80f /home/ape/libs/mspgcc-4.7.3/bin/../lib/gcc/msp430/4.7.3/../../../../msp430/lib/mmpy-16/libc.a(vuprintf.o)
 .debug_loc     0x0000000000000995       0x26 /home/ape/libs/mspgcc-4.7.3/bin/../lib/gcc/msp430/4.7.3/../../../../msp430/lib/mmpy-16/libc.a(puts.o)
 .debug_loc     0x00000000000009bb       0x4f /home/ape/libs/mspgcc-4.7.3/bin/../lib/gcc/msp430/4.7.3/../../../../msp430/lib/mmpy-16/libc.a(rand.o)
 .debug_loc     0x0000000000000a0a       0x4d /home/ape/libs/mspgcc-4.7.3/bin/../lib/gcc/msp430/4.7.3/../../../../msp430/lib/mmpy-16/libc.a(memcmp.o)
 .debug_loc     0x0000000000000a57      0x1e3 /home/ape/libs/mspgcc-4.7.3/bin/../lib/gcc/msp430/4.7.3/../../../../msp430/lib/mmpy-16/libc.a(memcpy.o)
 .debug_loc     0x0000000000000c3a      0x1e3 /home/ape/libs/mspgcc-4.7.3/bin/../lib/gcc/msp430/4.7.3/../../../../msp430/lib/mmpy-16/libc.a(memmove.o)
 .debug_loc     0x0000000000000e1d       0xe1 /home/ape/libs/mspgcc-4.7.3/bin/../lib/gcc/msp430/4.7.3/../../../../msp430/lib/mmpy-16/libc.a(memset.o)

.debug_macinfo
 *(SORT(.debug_macinfo))

.debug_pubtypes
 *(SORT(.debug_pubtypes))

.debug_ranges   0x0000000000000000       0x84
 *(SORT(.debug_ranges))
 .debug_ranges  0x0000000000000000        0xc /home/ape/libs/mspgcc-4.7.3/bin/../lib/gcc/msp430/4.7.3/../../../../msp430/lib/mmpy-16/libc.a(printf.o)
 .debug_ranges  0x000000000000000c       0x1c /home/ape/libs/mspgcc-4.7.3/bin/../lib/gcc/msp430/4.7.3/../../../../msp430/lib/mmpy-16/libc.a(sprintf.o)
 .debug_ranges  0x0000000000000028       0x24 /home/ape/libs/mspgcc-4.7.3/bin/../lib/gcc/msp430/4.7.3/../../../../msp430/lib/mmpy-16/libc.a(vuprintf.o)
 .debug_ranges  0x000000000000004c        0x8 /home/ape/libs/mspgcc-4.7.3/bin/../lib/gcc/msp430/4.7.3/../../../../msp430/lib/mmpy-16/libc.a(puts.o)
 .debug_ranges  0x0000000000000054       0x10 /home/ape/libs/mspgcc-4.7.3/bin/../lib/gcc/msp430/4.7.3/../../../../msp430/lib/mmpy-16/libc.a(rand.o)
 .debug_ranges  0x0000000000000064        0x8 /home/ape/libs/mspgcc-4.7.3/bin/../lib/gcc/msp430/4.7.3/../../../../msp430/lib/mmpy-16/libc.a(memcmp.o)
 .debug_ranges  0x000000000000006c        0x8 /home/ape/libs/mspgcc-4.7.3/bin/../lib/gcc/msp430/4.7.3/../../../../msp430/lib/mmpy-16/libc.a(memcpy.o)
 .debug_ranges  0x0000000000000074        0x8 /home/ape/libs/mspgcc-4.7.3/bin/../lib/gcc/msp430/4.7.3/../../../../msp430/lib/mmpy-16/libc.a(memmove.o)
 .debug_ranges  0x000000000000007c        0x8 /home/ape/libs/mspgcc-4.7.3/bin/../lib/gcc/msp430/4.7.3/../../../../msp430/lib/mmpy-16/libc.a(memset.o)
                0x0000000000003900                PROVIDE (__stack, (ORIGIN (ram) + 0x2800))
                0x000000000000f812                __data_start_rom = _etext
                0x000000000000f974                __data_end_rom = (_etext + SIZEOF (.data))
OUTPUT(build/sky/rpl_node.sky elf32-msp430)
